(lp0
(dp1
Vstatus
p2
Vcompleted
p3
sVexitdata
p4
(dp5
Vfeedback
p6
VFantastic HIT... Everything seemed to run smoothly without bugs; however - It would be nice if we can do it in real time and watch our bonus rise, but no complaints on waiting.\u000a\u000aHopefully I can catch another and see if I can produce any different outcomes.
p7
ssVsubmitTime
p8
cdatetime
datetime
p9
(S'\x07\xe1\x04\x0b\x0f\x1a\x10\x034P'
p10
tp11
Rp12
sVinstances
p13
(lp14
(dp15
VleaveTime
p16
g9
(S'\x07\xe1\x04\x0b\x0f\x19\x10\x07\x0c\xb0'
p17
tp18
Rp19
sVjoinTime
p20
g9
(S'\x07\xe1\x04\x0b\x0f\x152\r\xac\x00'
p21
tp22
Rp23
sVid
p24
VCTjgTGr7nN7SRFMQW
p25
sasVassignmentId
p26
V3M0BCWMB8VW9HRSLQPHEG8SSQ56WB9
p27
sVworkerId
p28
VA15FXHC1CVNW31
p29
sVipAddr
p30
(lp31
V172.17.0.4
p32
asVbonusPaid
p33
g9
(S'\x07\xe1\x04\x0b\x11\x07\x13\x03\xadh'
p34
tp35
Rp36
sVbatchId
p37
VdpmhLMSeHeJP8wGdo
p38
sVacceptTime
p39
g9
(S'\x07\xe1\x04\x0b\x0f\x04.\n90'
p40
tp41
Rp42
sVmturkStatus
p43
VApproved
p44
sVhitId
p45
V3IWA71V4TIGFDVIME1RQISOQ7NOX6M
p46
sVuserAgent
p47
(lp48
VMozilla/5.0 (Windows NT 6.1; rv:38.0) Gecko/20100101 Firefox/38.0
p49
asV_id
p50
V5Y7o7iXZRq59aJBwM
p51
sVbonusPayment
p52
F2.25
sVbonusMessage
p53
VThank you very much for participating, and for the encouraging feedback. You earned 1.40 from your games, 0.60 for the quiz and survey, and 0.25 thank you for being an early participant and providing feedback.  I'll continue to post this HIT; you're welcome to return.
p54
sa(dp55
Vstatus
p56
Vcompleted
p57
sVexitdata
p58
(dp59
Vfeedback
p60
VThe instructions were a little wordy for my taste. I found myself both feeling like I had been given too much to take in, and that I understood the important concepts regardless. \u000a\u000aIt is inconsistent which screens require that you need to click Next to proceed from, and which will be advanced automatically when you click "Submit". Also, I think it's slightly unclear that choosing between the two games is labeled as its own "Round."\u000a\u000aAll in all though this was great and the interface is really nice. 
p61
ssVsubmitTime
p62
g9
(S'\x07\xe1\x04\x0b\x0f+\x1e\t\xc7\xe8'
p63
tp64
Rp65
sVinstances
p66
(lp67
(dp68
VleaveTime
p69
g9
(S'\x07\xe1\x04\x0b\x0f)+\x04\x07@'
p70
tp71
Rp72
sVjoinTime
p73
g9
(S'\x07\xe1\x04\x0b\x0f%\x1a\x07\x14\x80'
p74
tp75
Rp76
sVid
p77
VJFR3rFKAam7L7YYj5
p78
sasVassignmentId
p79
V3EJPLAJKEMG75AGV5LKD4W0IT6ZZ6H
p80
sVworkerId
p81
VA36TE52PSYAAD6
p82
sVipAddr
p83
(lp84
V172.17.0.4
p85
asVbonusPaid
p86
g9
(S'\x07\xe1\x04\x0b\x11\x19\x01\x07\xb8\x90'
p87
tp88
Rp89
sVbatchId
p90
VdpmhLMSeHeJP8wGdo
p91
sVacceptTime
p92
g9
(S'\x07\xe1\x04\x0b\x0f\x04/\x02\x1b\x10'
p93
tp94
Rp95
sVmturkStatus
p96
VApproved
p97
sVhitId
p98
V351S7I5UG9WMPWJPWEY6TU2XRFZJNV
p99
sVuserAgent
p100
(lp101
VMozilla/5.0 (Windows NT 10.0; WOW64) AppleWebKit/537.36 (KHTML, like Gecko) Chrome/57.0.2987.133 Safari/537.36
p102
asV_id
p103
V4vhAJuu5qSNh5297G
p104
sVbonusPayment
p105
F2.4
sVbonusMessage
p106
VThank you very much for your feedback. You earned 1.40 from your games, 0.60 for the quiz and survey, and 0.40 as thanks for the useful feedback.  The instructions must be wordy (others have asked for more), but you'll get to skip them if you return.  On your input, I changed up the round titles and will think about better distinguishing between buttons that take you through rounds and buttons that take you across sections. I'll continue to post this HIT; you're welcome to return.
p107
sa(dp108
Vstatus
p109
Vassigned
p110
sVassignmentId
p111
V3KAKFY4PGU2MD143MFYTXYL8N2W3IJ
p112
sVworkerId
p113
VA9Z25VKRSKF8O
p114
sVipAddr
p115
(lp116
V172.17.0.4
p117
asVbatchId
p118
VdpmhLMSeHeJP8wGdo
p119
sVacceptTime
p120
g9
(S'\x07\xe1\x04\x0b\x0f\x042\n\xbe\x00'
p121
tp122
Rp123
sVhitId
p124
V351S7I5UG9WMPWJPWEY6TU2XRFZJNV
p125
sVuserAgent
p126
(lp127
VMozilla/5.0 (Windows NT 10.0; WOW64) AppleWebKit/537.36 (KHTML, like Gecko) Chrome/57.0.2987.133 Safari/537.36
p128
asV_id
p129
VduCmFwxZyzb3CTB5q
p130
sa(dp131
Vstatus
p132
Vcompleted
p133
sVexitdata
p134
(dp135
Vfeedback
p136
VI didn't find anything confusing I thought the instructions were very well communicated to me.  I love the layout of the game you have set up as well. 
p137
ssVsubmitTime
p138
g9
(S'\x07\xe1\x04\x0b\x0f(;\x08\xbeH'
p139
tp140
Rp141
sVinstances
p142
(lp143
(dp144
VleaveTime
p145
g9
(S'\x07\xe1\x04\x0b\x0f(\x0e\nd('
p146
tp147
Rp148
sVjoinTime
p149
g9
(S'\x07\xe1\x04\x0b\x0f#,\x03\xc8\xc0'
p150
tp151
Rp152
sVid
p153
VZEcQGgMLwvKBxEmXD
p154
sasVassignmentId
p155
V3SEPORI8WNZ8SCSYVY1PK124PPPZA7
p156
sVworkerId
p157
VAQJWO4YPR3LUQ
p158
sVipAddr
p159
(lp160
V172.17.0.4
p161
asVbonusPaid
p162
g9
(S'\x07\xe1\x04\x0b\x11\x12\x1a\x0f:p'
p163
tp164
Rp165
sVbatchId
p166
VdpmhLMSeHeJP8wGdo
p167
sVacceptTime
p168
g9
(S'\x07\xe1\x04\x0b\x0f\x044\x04\xc2\xc0'
p169
tp170
Rp171
sVmturkStatus
p172
VApproved
p173
sVhitId
p174
V3PKVGQTFIHKXZJ6GBLGQC1MV5GXRYL
p175
sVuserAgent
p176
(lp177
VMozilla/5.0 (Windows NT 10.0; Win64; x64) AppleWebKit/537.36 (KHTML, like Gecko) Chrome/57.0.2987.133 Safari/537.36
p178
asV_id
p179
VYxns2vG4TDsZFemF4
p180
sVbonusPayment
p181
F2.5
sVbonusMessage
p182
VThank you very much for your feedback. You earned 1.70 from your games, 0.60 for the quiz and survey, and 0.20 as thanks for the encouraging feedback. I'll continue to post this HIT; you're welcome to return.
p183
sa(dp184
Vstatus
p185
Vcompleted
p186
sVexitdata
p187
(dp188
Vfeedback
p189
VNo issues.  Need to describe somewhat elaborately for the section 1 and 2.
p190
ssVsubmitTime
p191
g9
(S"\x07\xe1\x04\x0b\x12\x1b'\n\xa2\xa8"
p192
tp193
Rp194
sVinstances
p195
(lp196
(dp197
VleaveTime
p198
g9
(S'\x07\xe1\x04\x0b\x12\x1a-\x06\xd9\xe8'
p199
tp200
Rp201
sVjoinTime
p202
g9
(S'\x07\xe1\x04\x0b\x12\x14(\x05\xa1h'
p203
tp204
Rp205
sVid
p206
VtceC6KdyacMyWAocJ
p207
sasVassignmentId
p208
V3LS2AMNW5FQOGOL8ILNUU3A5938OQ1
p209
sVworkerId
p210
VA296HTKGCX7FY9
p211
sVipAddr
p212
(lp213
V172.17.0.4
p214
asVbonusPaid
p215
g9
(S'\x07\xe1\x04\x0c\x0e7\r\x0b\x81P'
p216
tp217
Rp218
sVbatchId
p219
VdpmhLMSeHeJP8wGdo
p220
sVacceptTime
p221
g9
(S'\x07\xe1\x04\x0b\x0f\x046\x0b>\xe8'
p222
tp223
Rp224
sVmturkStatus
p225
VApproved
p226
sVhitId
p227
V351S7I5UG9WMPWJPWEY6TU2XRFZJNV
p228
sVuserAgent
p229
(lp230
VMozilla/5.0 (Windows NT 10.0; Win64; x64) AppleWebKit/537.36 (KHTML, like Gecko) Chrome/57.0.2987.133 Safari/537.36
p231
asV_id
p232
VtkXwf7WEpsnK7jDLx
p233
sVbonusPayment
p234
F2.3
sVbonusMessage
p235
VThank you very much for participating, and for the feedback. You earned 1.50 from your games, 0.60 for the quiz and survey, and 0.20 thank you for being an early participant and providing feedback.  I'll continue to post this HIT; you're welcome to return.\u000a
p236
sa(dp237
Vstatus
p238
Vassigned
p239
sVassignmentId
p240
V3NPI0JQDAO5JT4P1EPU4O8QI3F3TP1
p241
sVworkerId
p242
VA37QCZD5MFB2TF
p243
sVipAddr
p244
(lp245
V172.17.0.4
p246
asVbatchId
p247
VdpmhLMSeHeJP8wGdo
p248
sVacceptTime
p249
g9
(S'\x07\xe1\x04\x0b\x0f\x05\x02\x05\x18\xb0'
p250
tp251
Rp252
sVhitId
p253
V3PKVGQTFIHKXZJ6GBLGQC1MV5GXRYL
p254
sVuserAgent
p255
(lp256
VMozilla/5.0 (Windows NT 10.0; Win64; x64) AppleWebKit/537.36 (KHTML, like Gecko) Chrome/57.0.2987.133 Safari/537.36
p257
asV_id
p258
V8FPJCCngq24BudnF5
p259
sa(dp260
Vstatus
p261
Vassigned
p262
sVassignmentId
p263
V374TNBHA8BV0A2PAO8WSWU87ND7QYE
p264
sVworkerId
p265
VA154X03NKVZZL1
p266
sVipAddr
p267
(lp268
V172.17.0.4
p269
asVbatchId
p270
VdpmhLMSeHeJP8wGdo
p271
sVacceptTime
p272
g9
(S'\x07\xe1\x04\x0b\x0f\x06\x05\x0b/H'
p273
tp274
Rp275
sVhitId
p276
V3IWA71V4TIGFDVIME1RQISOQ7NOX6M
p277
sVuserAgent
p278
(lp279
VMozilla/5.0 (Macintosh; Intel Mac OS X 10.9; rv:52.0) Gecko/20100101 Firefox/52.0
p280
asV_id
p281
V7PAsgSLe72SBnWGYo
p282
sa(dp283
Vstatus
p284
Vcompleted
p285
sVexitdata
p286
(dp287
Vfeedback
p288
VInteresting, engaging, and well-designed game.
p289
ssVsubmitTime
p290
g9
(S'\x07\xe1\x04\x0c\r\x0e\x14\x07\xe7p'
p291
tp292
Rp293
sVinstances
p294
(lp295
(dp296
VleaveTime
p297
g9
(S'\x07\xe1\x04\x0c\r\r;\x03\x01\x88'
p298
tp299
Rp300
sVjoinTime
p301
g9
(S'\x07\xe1\x04\x0c\x0c7)\x01kH'
p302
tp303
Rp304
sVid
p305
VEdixdF68eAbudDboc
p306
sasVassignmentId
p307
V3LYA37P8IQNIMRY41BYBSXYX3YYBKT
p308
sVworkerId
p309
VAKSJ3C5O3V9RB
p310
sVipAddr
p311
(lp312
V172.17.0.4
p313
asVbonusPaid
p314
g9
(S'\x07\xe1\x04\r\x02\x12\x1f\x08AH'
p315
tp316
Rp317
sVbatchId
p318
VdpmhLMSeHeJP8wGdo
p319
sVacceptTime
p320
g9
(S'\x07\xe1\x04\x0b\x0f\x06.\x01\xec0'
p321
tp322
Rp323
sVmturkStatus
p324
VApproved
p325
sVhitId
p326
V3PKVGQTFIHKXZJ6GBLGQC1MV5GXRYL
p327
sVuserAgent
p328
(lp329
VMozilla/5.0 (Macintosh; Intel Mac OS X 10_10_5) AppleWebKit/537.36 (KHTML, like Gecko) Chrome/58.0.3029.54 Safari/537.36
p330
asV_id
p331
Vm5E5XewMRXMyQgFn5
p332
sVbonusPayment
p333
F1.55
sVbonusMessage
p334
VThank you for participating. You earned 0.35 for the quiz and survey, 0.60 for Section 1, and 0.60 for Section 2.  \u000a
p335
sa(dp336
Vstatus
p337
Vcompleted
p338
sVexitdata
p339
(dp340
Vfeedback
p341
VI'm wondering how I can repeat the experiment, as mentioned above. Also, earlier in the instructions it said each point was 10 cents, and that getting 3 points in the scenario would give me a bonus of 45 cents. shouldn't that be a bonus of 30 cents?
p342
ssVsubmitTime
p343
g9
(S'\x07\xe1\x04\x0b\x0f"(\x00\xaf\xc8'
p344
tp345
Rp346
sVinstances
p347
(lp348
(dp349
VleaveTime
p350
g9
(S'\x07\xe1\x04\x0b\x0f )\x0e8\xa0'
p351
tp352
Rp353
sVjoinTime
p354
g9
(S'\x07\xe1\x04\x0b\x0f\x17\x00\x01W\xc0'
p355
tp356
Rp357
sVid
p358
VX62qNLLWXEmZ3Gmtc
p359
sasVassignmentId
p360
V33FOTY3KEMLZQV4O71OOY28GCDYC1Y
p361
sVworkerId
p362
VA2HM35CWB7IIFM
p363
sVipAddr
p364
(lp365
V172.17.0.4
p366
asVbonusPaid
p367
g9
(S'\x07\xe1\x04\x0b\x11\x0b\x0f\x03\x8a@'
p368
tp369
Rp370
sVbatchId
p371
VdpmhLMSeHeJP8wGdo
p372
sVacceptTime
p373
g9
(S'\x07\xe1\x04\x0b\x0f\x08\x1d\tN\xd0'
p374
tp375
Rp376
sVmturkStatus
p377
VApproved
p378
sVhitId
p379
V3IWA71V4TIGFDVIME1RQISOQ7NOX6M
p380
sVuserAgent
p381
(lp382
VMozilla/5.0 (Windows NT 6.3; WOW64; rv:52.0) Gecko/20100101 Firefox/52.0
p383
asV_id
p384
VAN5Z4BCwXauNoh7t7
p385
sVbonusPayment
p386
F2.3
sVbonusMessage
p387
VThank you very much for participating, for the encouraging feedback, and for catching that typo! You earned a total of 1.30 from your games, 0.60 for the quiz and survey, and 0.40 as thanks for the useful feedback.  I'll continue to post this HIT; you're welcome to return.
p388
sa(dp389
Vstatus
p390
Vassigned
p391
sVassignmentId
p392
V3RKNTXVS3MYSPF49A5BZQ5PVOUO4A2
p393
sVworkerId
p394
VANVAFB99K5RKP
p395
sVipAddr
p396
(lp397
V172.17.0.4
p398
asVbatchId
p399
VdpmhLMSeHeJP8wGdo
p400
sVacceptTime
p401
g9
(S'\x07\xe1\x04\x0b\x0f\x15\x18\x0e_\xb0'
p402
tp403
Rp404
sVhitId
p405
V35O6H0UNLSGIZ7DJSE2KZD2B0UJJ5P
p406
sVuserAgent
p407
(lp408
VMozilla/5.0 (Macintosh; Intel Mac OS X 10_9_5) AppleWebKit/537.36 (KHTML, like Gecko) Chrome/57.0.2987.133 Safari/537.36
p409
asV_id
p410
VYFNgr9fS8tqv4vyuF
p411
sa(dp412
Vstatus
p413
Vcompleted
p414
sVexitdata
p415
(dp416
Vfeedback
p417
VNo bugs, all worked out great, thanks ! As this was first time experience for me, needed some extra time to understand the basics. I assume, during the game got more understanding.  Thank you !
p418
ssVsubmitTime
p419
g9
(S'\x07\xe1\x04\x0b\x10\x01,\x07\x9d8'
p420
tp421
Rp422
sVinstances
p423
(lp424
(dp425
VleaveTime
p426
g9
(S'\x07\xe1\x04\x0b\x0f;-\x0c\xb5\xe8'
p427
tp428
Rp429
sVjoinTime
p430
g9
(S'\x07\xe1\x04\x0b\x0f3\x06\x04\x1e\xb0'
p431
tp432
Rp433
sVid
p434
Vafn9MQH9PhKpiS9Hy
p435
sasVassignmentId
p436
V33SA9F9TRXU7OU450GJ4HGYDT2LEWT
p437
sVworkerId
p438
VA16QZSBYXE5VY8
p439
sVipAddr
p440
(lp441
V172.17.0.4
p442
asVbonusPaid
p443
g9
(S'\x07\xe1\x04\x0b\x14\x0b\x00\x01O\xf0'
p444
tp445
Rp446
sVbatchId
p447
VdpmhLMSeHeJP8wGdo
p448
sVacceptTime
p449
g9
(S'\x07\xe1\x04\x0b\x0f\x15\x1a\n\\X'
p450
tp451
Rp452
sVmturkStatus
p453
VApproved
p454
sVhitId
p455
V35O6H0UNLSGIZ7DJSE2KZD2B0UJJ5P
p456
sVuserAgent
p457
(lp458
VMozilla/5.0 (Windows NT 10.0; WOW64) AppleWebKit/537.36 (KHTML, like Gecko) Chrome/56.0.2924.87 Safari/537.36
p459
asV_id
p460
VTjo8ykTrp7PHimkfv
p461
sVbonusPayment
p462
I2
sVbonusMessage
p463
VThank you very much for participating, and for the encouraging feedback. You earned 1.20 from your games, 0.60 for the quiz and survey, and round up to 2.00 for being an early participant and providing feedback.  I'll continue to post this HIT; you're welcome to return.\u000a
p464
sa(dp465
Vstatus
p466
Vcompleted
p467
sVexitdata
p468
(dp469
Vfeedback
p470
VOm the quiz, it is not said that you have to click the squares to make a selection. There is what looks like an input field that I expected to type my answer in. That should be cleared up a little.
p471
ssVsubmitTime
p472
g9
(S'\x07\xe1\x04\x0b\x0f#$\x05\x82('
p473
tp474
Rp475
sVinstances
p476
(lp477
(dp478
VleaveTime
p479
g9
(S'\x07\xe1\x04\x0b\x0f!7\x08\x1a8'
p480
tp481
Rp482
sVjoinTime
p483
g9
(S'\x07\xe1\x04\x0b\x0f\x1f\r\x06\x9fP'
p484
tp485
Rp486
sVid
p487
V2shHFqmTEKnwY2JHq
p488
sasVassignmentId
p489
V33TIN5LC04AUI38O76L6AZIIDD59YD
p490
sVworkerId
p491
VA3F0NFNLOLFJT0
p492
sVipAddr
p493
(lp494
V172.17.0.4
p495
asVbonusPaid
p496
g9
(S'\x07\xe1\x04\x0b\x11\x10!\ra\xc8'
p497
tp498
Rp499
sVbatchId
p500
VdpmhLMSeHeJP8wGdo
p501
sVacceptTime
p502
g9
(S'\x07\xe1\x04\x0b\x0f\x16\x10\x0c\r\xf0'
p503
tp504
Rp505
sVmturkStatus
p506
VApproved
p507
sVhitId
p508
V35O6H0UNLSGIZ7DJSE2KZD2B0UJJ5P
p509
sVuserAgent
p510
(lp511
VMozilla/5.0 (Windows NT 6.1; WOW64) AppleWebKit/537.36 (KHTML, like Gecko) Chrome/57.0.2987.133 Safari/537.36
p512
asV_id
p513
VY9muWtjJFtTWXoC29
p514
sVbonusPayment
p515
F2.6
sVbonusMessage
p516
VThank you very much for your feedback. You earned the maximum of 1.80 from your games, 0.60 for the quiz and survey, and 0.20 as thanks for the useful feedback. I clarified the instructions on your advice.  I'll continue to post this HIT; you're welcome to return.
p517
sa(dp518
Vstatus
p519
Vcompleted
p520
sVexitdata
p521
(dp522
Vfeedback
p523
VI think the interface is great! It's simple, and it works. It's fast, and the design is good. I think the instructions were clear and it's an easy and fun experiment. I didn't find any bugs and it wasn't confusing at all. Well done!
p524
ssVsubmitTime
p525
g9
(S'\x07\xe1\x04\x0b\x0f+"\x07$ '
p526
tp527
Rp528
sVinstances
p529
(lp530
(dp531
VleaveTime
p532
g9
(S'\x07\xe1\x04\x0b\x0f)%\n\x93\x08'
p533
tp534
Rp535
sVjoinTime
p536
g9
(S'\x07\xe1\x04\x0b\x0f#"\x04.P'
p537
tp538
Rp539
sVid
p540
VzCfTBn63gSZBdwwsK
p541
sasVassignmentId
p542
V3VFJCI1K4ZZ00CJA7HZMUKB8E3KGR8
p543
sVworkerId
p544
VA2A0M30DSA7ZN
p545
sVipAddr
p546
(lp547
V172.17.0.4
p548
asVbonusPaid
p549
g9
(S'\x07\xe1\x04\x0b\x14\x07\x1a\x07\xebX'
p550
tp551
Rp552
sVbatchId
p553
VdpmhLMSeHeJP8wGdo
p554
sVacceptTime
p555
g9
(S'\x07\xe1\x04\x0b\x0f\x1d0\x00\xfa\x00'
p556
tp557
Rp558
sVmturkStatus
p559
VApproved
p560
sVhitId
p561
V351S7I5UG9WMPWJPWEY6TU2XRFZJNV
p562
sVuserAgent
p563
(lp564
VMozilla/5.0 (Windows NT 10.0; Win64; x64) AppleWebKit/537.36 (KHTML, like Gecko) Chrome/57.0.2987.133 Safari/537.36
p565
asV_id
p566
VD8PfCv3v7CT5S9w6H
p567
sVbonusPayment
p568
F1.85
sVbonusMessage
p569
VThank you very much for participating, and for the encouraging feedback! You earned a total of 1.00 from your games, 0.60 for the quiz and survey, and 0.25 as thanks for the useful feedback.  I'll continue to post this HIT; you're welcome to return.\u000a
p570
sa(dp571
Vstatus
p572
Vcompleted
p573
sVexitdata
p574
(dp575
Vfeedback
p576
VI did not.
p577
ssVsubmitTime
p578
g9
(S"\x07\xe1\x04\x0b\x16'5\x08P\xe8"
p579
tp580
Rp581
sVinstances
p582
(lp583
(dp584
VleaveTime
p585
g9
(S'\x07\xe1\x04\x0b\x16\'"\x06=\xa8'
p586
tp587
Rp588
sVjoinTime
p589
g9
(S'\x07\xe1\x04\x0b\x16\x1e9\nD\xe8'
p590
tp591
Rp592
sVid
p593
Vw2EK9w9hf2Ay8Yz37
p594
sasVassignmentId
p595
V3LEIZ60CDJZUNTIT3SNPO6RKJ77Z9S
p596
sVworkerId
p597
VA1MJHGH55K3O0
p598
sVipAddr
p599
(lp600
V172.17.0.4
p601
asVbonusPaid
p602
g9
(S'\x07\xe1\x04\r\x02\x11\x12\n\x12 '
p603
tp604
Rp605
sVbatchId
p606
VdpmhLMSeHeJP8wGdo
p607
sVacceptTime
p608
g9
(S'\x07\xe1\x04\x0b\x10"7\tn\x10'
p609
tp610
Rp611
sVmturkStatus
p612
VApproved
p613
sVhitId
p614
V3PKVGQTFIHKXZJ6GBLGQC1MV5GXRYL
p615
sVuserAgent
p616
(lp617
VMozilla/5.0 (Windows NT 6.1; Win64; x64) AppleWebKit/537.36 (KHTML, like Gecko) Chrome/57.0.2987.133 Safari/537.36
p618
asV_id
p619
VJheqXta5tJeqERrEC
p620
sVbonusPayment
p621
F2.05
sVbonusMessage
p622
VThank you for participating. You earned 0.35 for the quiz and survey, 0.80 for Section 1, and 0.90 for Section 2.  \u000a
p623
sa(dp624
Vstatus
p625
Vcompleted
p626
sVexitdata
p627
(dp628
Vfeedback
p629
VI had no issues whatsoever with the experiment. Thanks for the study.
p630
ssVsubmitTime
p631
g9
(S'\x07\xe1\x04\x0b\x13,,\x06\\\xe8'
p632
tp633
Rp634
sVinstances
p635
(lp636
(dp637
VleaveTime
p638
g9
(S'\x07\xe1\x04\x0b\x13)"\x01\xdc\x90'
p639
tp640
Rp641
sVjoinTime
p642
g9
(S'\x07\xe1\x04\x0b\x13 \x11\t\x18 '
p643
tp644
Rp645
sVid
p646
VzqoqNvvCFAxG9jGGk
p647
sasVassignmentId
p648
V3FE2ERCCZX83GCKTI885UYKV47MOPA
p649
sVworkerId
p650
VA3N0QZ9ZKUCTCQ
p651
sVipAddr
p652
(lp653
V172.17.0.4
p654
asVbonusPaid
p655
g9
(S'\x07\xe1\x04\x0c\x0e;\x13\tZ\x88'
p656
tp657
Rp658
sVbatchId
p659
VdpmhLMSeHeJP8wGdo
p660
sVacceptTime
p661
g9
(S'\x07\xe1\x04\x0b\x11\x1c\x0c\x03\xadh'
p662
tp663
Rp664
sVmturkStatus
p665
VApproved
p666
sVhitId
p667
V3IWA71V4TIGFDVIME1RQISOQ7NOX6M
p668
sVuserAgent
p669
(lp670
VMozilla/5.0 (Windows NT 10.0; WOW64) AppleWebKit/537.36 (KHTML, like Gecko) Chrome/57.0.2987.133 Safari/537.36
p671
asV_id
p672
VZAX3dhAsAj5wm8dcY
p673
sVbonusPayment
p674
F1.8
sVbonusMessage
p675
VThank you for participating (and for returning).  You game earnings in this HIT were 1.20.
p676
sa(dp677
Vstatus
p678
Vcompleted
p679
sVexitdata
p680
(dp681
Vfeedback
p682
VAnother great HIT.. I'm liking this. Definitely more responsive now. Keep them coming! :-)
p683
ssVsubmitTime
p684
g9
(S'\x07\xe1\x04\x0b\x14\x132\x08\xbeH'
p685
tp686
Rp687
sVinstances
p688
(lp689
(dp690
VleaveTime
p691
g9
(S'\x07\xe1\x04\x0b\x14\x13\x1f\x05\x95\xb0'
p692
tp693
Rp694
sVjoinTime
p695
g9
(S'\x07\xe1\x04\x0b\x14\x11\x01\x04x\x88'
p696
tp697
Rp698
sVid
p699
VD9Wy3y7konZ9scxzn
p700
sasVassignmentId
p701
V3NGMS9VZTLIXJMI652TAVAXDA16FFC
p702
sVworkerId
p703
VA15FXHC1CVNW31
p704
sVipAddr
p705
(lp706
V172.17.0.4
p707
asVbonusPaid
p708
g9
(S'\x07\xe1\x04\x0c\x11\x16\x02\r\xf68'
p709
tp710
Rp711
sVbatchId
p712
VdpmhLMSeHeJP8wGdo
p713
sVacceptTime
p714
g9
(S'\x07\xe1\x04\x0b\x14\x03\t\x02>8'
p715
tp716
Rp717
sVmturkStatus
p718
VApproved
p719
sVhitId
p720
V35JDMRECC4984OGBV9AK6UG8M5DGEG
p721
sVuserAgent
p722
(lp723
VMozilla/5.0 (Windows NT 6.1; rv:38.0) Gecko/20100101 Firefox/38.0
p724
asV_id
p725
VmiTjGsEKessrtzsoL
p726
sVbonusPayment
p727
F1.2
sVbonusMessage
p728
V0.30 for section 1, 0.90 for section 2.  Thanks!
p729
sa(dp730
Vstatus
p731
Vcompleted
p732
sVexitdata
p733
(dp734
Vfeedback
p735
V
p736
ssVsubmitTime
p737
g9
(S'\x07\xe1\x04\x0b\x14\x119\x04\xf1\xa0'
p738
tp739
Rp740
sVinstances
p741
(lp742
(dp743
VleaveTime
p744
g9
(S'\x07\xe1\x04\x0b\x14\x110\x08\xb2\x90'
p745
tp746
Rp747
sVjoinTime
p748
g9
(S'\x07\xe1\x04\x0b\x14\x0e5\x01\xc5 '
p749
tp750
Rp751
sVid
p752
VqridZmRa4kohrk9sF
p753
sasVassignmentId
p754
V3NQL1CS15R8SFALRA7Q22H7F46KYVG
p755
sVworkerId
p756
VA1MYLQQL8BBOYT
p757
sVipAddr
p758
(lp759
V172.17.0.4
p760
asVbonusPaid
p761
g9
(S'\x07\xe1\x04\x0c\x11\x14&\x06U\x18'
p762
tp763
Rp764
sVbatchId
p765
VdpmhLMSeHeJP8wGdo
p766
sVacceptTime
p767
g9
(S'\x07\xe1\x04\x0b\x14\r\x02\x0c\xc9p'
p768
tp769
Rp770
sVmturkStatus
p771
VApproved
p772
sVhitId
p773
V3P458N04Q1HRVUZLRZFNSF7ESSV2X4
p774
sVuserAgent
p775
(lp776
VMozilla/5.0 (Windows NT 10.0; Win64; x64) AppleWebKit/537.36 (KHTML, like Gecko) Chrome/57.0.2987.133 Safari/537.36
p777
asV_id
p778
V9TSPXrqYgHpgTqGGr
p779
sVbonusPayment
p780
F1.85
sVbonusMessage
p781
V0.35 for quiz and survey, 0.70 for section 1, and 0.80 for section 2. 
p782
sa(dp783
Vstatus
p784
Vcompleted
p785
sVexitdata
p786
(dp787
Vfeedback
p788
VThis was nice.
p789
ssVsubmitTime
p790
g9
(S'\x07\xe1\x04\x0b\x16\x13 \x08`\x88'
p791
tp792
Rp793
sVinstances
p794
(lp795
(dp796
VleaveTime
p797
g9
(S'\x07\xe1\x04\x0b\x16\x13\x17\tG\x00'
p798
tp799
Rp800
sVjoinTime
p801
g9
(S'\x07\xe1\x04\x0b\x16\x11\x06\n\x19\xf0'
p802
tp803
Rp804
sVid
p805
VPDEZBBMeC42xbPSp9
p806
sasVassignmentId
p807
V3NG53N1RLVJ0VKXDBRJ9XCUVP3GP88
p808
sVworkerId
p809
VA1W4Q0E00VP6VD
p810
sVipAddr
p811
(lp812
V172.17.0.4
p813
asVbonusPaid
p814
g9
(S'\x07\xe1\x04\x0c\x11,\x1f\x03\x86X'
p815
tp816
Rp817
sVbatchId
p818
VdpmhLMSeHeJP8wGdo
p819
sVacceptTime
p820
g9
(S'\x07\xe1\x04\x0b\x14\r\x07\n90'
p821
tp822
Rp823
sVmturkStatus
p824
VApproved
p825
sVhitId
p826
V3WRBLBQ2GR89DY1HN2B5L5E4S4FG06
p827
sVuserAgent
p828
(lp829
VMozilla/5.0 (Windows NT 10.0; WOW64) AppleWebKit/537.36 (KHTML, like Gecko) Chrome/56.0.2924.87 Safari/537.36
p830
asV_id
p831
V4WfGEidA8jGico2Ar
p832
sVbonusPayment
p833
F1.35
sVbonusMessage
p834
VThank you for participating. You earned 0.35 for the quiz and survey, 0.90 for Section 1, and 0.10 for Section 2.  \u000a
p835
sa(dp836
Vstatus
p837
Vcompleted
p838
sVexitdata
p839
(dp840
Vfeedback
p841
g736
ssVsubmitTime
p842
g9
(S'\x07\xe1\x04\x0b\x14\x1d!\x0c\xec\x98'
p843
tp844
Rp845
sVinstances
p846
(lp847
(dp848
VleaveTime
p849
g9
(S'\x07\xe1\x04\x0b\x14\x1d\x04\x04\xda0'
p850
tp851
Rp852
sVjoinTime
p853
g9
(S'\x07\xe1\x04\x0b\x14\x17\x00\x05\t\x10'
p854
tp855
Rp856
sVid
p857
V4bzMXH47zkpmqMAYh
p858
sasVassignmentId
p859
V3EJJQNKU9R5E08ELRNH4FKN9T4UHR7
p860
sVworkerId
p861
VA3SKEW89V5S0DI
p862
sVipAddr
p863
(lp864
V172.17.0.4
p865
asVbonusPaid
p866
g9
(S'\x07\xe1\x04\x0c\x11\x1d0\t\xc4\x00'
p867
tp868
Rp869
sVbatchId
p870
VdpmhLMSeHeJP8wGdo
p871
sVacceptTime
p872
g9
(S'\x07\xe1\x04\x0b\x14\r\t\t\xdbp'
p873
tp874
Rp875
sVmturkStatus
p876
VApproved
p877
sVhitId
p878
V3P458N04Q1HRVUZLRZFNSF7ESSV2X4
p879
sVuserAgent
p880
(lp881
VMozilla/5.0 (Macintosh; Intel Mac OS X 10_9_5) AppleWebKit/537.36 (KHTML, like Gecko) Chrome/57.0.2987.133 Safari/537.36
p882
asV_id
p883
VpaZ8xDeT6gJQNJgJb
p884
sVbonusPayment
p885
F1.45
sVbonusMessage
p886
VThank you for participating. You earned 0.35 for the quiz and survey, 0.40 for Section 1, and 0.70 for Section 2.  
p887
sa(dp888
Vstatus
p889
Vcompleted
p890
sVexitdata
p891
(dp892
Vfeedback
p893
g736
ssVsubmitTime
p894
g9
(S'\x07\xe1\x04\x0b\x14$\x14\x00R\x08'
p895
tp896
Rp897
sVinstances
p898
(lp899
(dp900
VleaveTime
p901
g9
(S'\x07\xe1\x04\x0b\x14$\x07\x0b\xacH'
p902
tp903
Rp904
sVjoinTime
p905
g9
(S'\x07\xe1\x04\x0b\x14\x1e\x10\x06\xf5@'
p906
tp907
Rp908
sVid
p909
VX9aw5XjTidkJF5zkH
p910
sasVassignmentId
p911
V37WLF8U1WPQCGFH95KH3HHC5PYKK6G
p912
sVworkerId
p913
VA5TI9UQEPLNWI
p914
sVipAddr
p915
(lp916
V172.17.0.4
p917
asVbonusPaid
p918
g9
(S'\x07\xe1\x04\x0c\x11 \x1f\x00\x84\xd0'
p919
tp920
Rp921
sVbatchId
p922
VdpmhLMSeHeJP8wGdo
p923
sVacceptTime
p924
g9
(S'\x07\xe1\x04\x0b\x14\x18\x04\x01\xf0\x18'
p925
tp926
Rp927
sVmturkStatus
p928
VApproved
p929
sVhitId
p930
V3P458N04Q1HRVUZLRZFNSF7ESSV2X4
p931
sVuserAgent
p932
(lp933
VMozilla/5.0 (Windows NT 6.1; WOW64) AppleWebKit/537.36 (KHTML, like Gecko) Chrome/57.0.2987.133 Safari/537.36
p934
asV_id
p935
VsJYuW4m3GsWwDRLsf
p936
sVbonusPayment
p937
F2.15
sVbonusMessage
p938
VThank you for participating. You earned the maximum bonus in this HIT: 0.35 for the quiz and survey, 0.90 for Section 1, and 0.90 for Section 2. \u000a
p939
sa(dp940
Vstatus
p941
Vcompleted
p942
sVexitdata
p943
(dp944
Vfeedback
p945
g736
ssVsubmitTime
p946
g9
(S'\x07\xe1\x04\x0b\x14"\x17\t\xf6\xc8'
p947
tp948
Rp949
sVinstances
p950
(lp951
(dp952
VleaveTime
p953
g9
(S'\x07\xe1\x04\x0b\x14"\x0b\t7`'
p954
tp955
Rp956
sVjoinTime
p957
g9
(S'\x07\xe1\x04\x0b\x14\x19\x1b\x00\xfd\xe8'
p958
tp959
Rp960
sVid
p961
VhD43LfB4zNw252qGY
p962
sasVassignmentId
p963
V3CTOC39K37Q09VPW69MJMGCO5K47J3
p964
sVworkerId
p965
VA3N0QZ9ZKUCTCQ
p966
sVipAddr
p967
(lp968
V172.17.0.4
p969
asVbonusPaid
p970
g9
(S'\x07\xe1\x04\x0c\x0f\x04\x08\x00u0'
p971
tp972
Rp973
sVbatchId
p974
VdpmhLMSeHeJP8wGdo
p975
sVacceptTime
p976
g9
(S'\x07\xe1\x04\x0b\x14\x19\x05\x0e,\xe8'
p977
tp978
Rp979
sVmturkStatus
p980
VApproved
p981
sVhitId
p982
V35JDMRECC4984OGBV9AK6UG8M5DGEG
p983
sVuserAgent
p984
(lp985
VMozilla/5.0 (Windows NT 10.0; WOW64) AppleWebKit/537.36 (KHTML, like Gecko) Chrome/57.0.2987.133 Safari/537.36
p986
asV_id
p987
V5CzQWiJatWysfcCSg
p988
sVbonusPayment
p989
F0.9
sVbonusMessage
p990
VYour game earnings by section were 0.5 and 0.4
p991
sa(dp992
Vstatus
p993
Vcompleted
p994
sVexitdata
p995
(dp996
Vfeedback
p997
g736
ssVsubmitTime
p998
g9
(S'\x07\xe1\x04\x0b\x14&\x1a\x07C`'
p999
tp1000
Rp1001
sVinstances
p1002
(lp1003
(dp1004
VleaveTime
p1005
g9
(S'\x07\xe1\x04\x0b\x14&\x17\x026h'
p1006
tp1007
Rp1008
sVjoinTime
p1009
g9
(S'\x07\xe1\x04\x0b\x14""\x0cg\xc8'
p1010
tp1011
Rp1012
sVid
p1013
VN8G8zq5xPkeF7ay7u
p1014
sasVassignmentId
p1015
V34S9DKFK73PF75CI8G4BS0D2I3JNYP
p1016
sVworkerId
p1017
VA3HESOWHVBQOEI
p1018
sVipAddr
p1019
(lp1020
V172.17.0.4
p1021
asVbonusPaid
p1022
g9
(S"\x07\xe1\x04\x0c\x11'\x12\x08\x0e\x80"
p1023
tp1024
Rp1025
sVbatchId
p1026
VdpmhLMSeHeJP8wGdo
p1027
sVacceptTime
p1028
g9
(S'\x07\xe1\x04\x0b\x14!\x05\t/\x90'
p1029
tp1030
Rp1031
sVmturkStatus
p1032
VApproved
p1033
sVhitId
p1034
V3MYASTQBG7BUP7WP2A4CUQ2PSGCDQ6
p1035
sVuserAgent
p1036
(lp1037
VMozilla/5.0 (Windows NT 10.0; WOW64; rv:52.0) Gecko/20100101 Firefox/52.0
p1038
asV_id
p1039
V4fyMAgA3REHiHhkbq
p1040
sVbonusPayment
p1041
F1.35
sVbonusMessage
p1042
VThank you for participating. You earned 0.35 for the quiz and survey, 0.30 for Section 1, and 0.70 for Section 2.  \u000a
p1043
sa(dp1044
Vstatus
p1045
Vcompleted
p1046
sVexitdata
p1047
(dp1048
Vfeedback
p1049
g736
ssVsubmitTime
p1050
g9
(S'\x07\xe1\x04\x0b\x14(\x1f\x07jp'
p1051
tp1052
Rp1053
sVinstances
p1054
(lp1055
(dp1056
VleaveTime
p1057
g9
(S'\x07\xe1\x04\x0b\x14(\x15\x06Q0'
p1058
tp1059
Rp1060
sVjoinTime
p1061
g9
(S'\x07\xe1\x04\x0b\x14%\x16\x04\x9f\x98'
p1062
tp1063
Rp1064
sVid
p1065
VQw7RsN7WmiNi5HQta
p1066
sasVassignmentId
p1067
V39N5ACM9HEN09PGNGJPNX8P699YP9X
p1068
sVworkerId
p1069
VA5TI9UQEPLNWI
p1070
sVipAddr
p1071
(lp1072
V172.17.0.4
p1073
asVbonusPaid
p1074
g9
(S'\x07\xe1\x04\x0c\x11!+\x05\x86\x10'
p1075
tp1076
Rp1077
sVbatchId
p1078
VdpmhLMSeHeJP8wGdo
p1079
sVacceptTime
p1080
g9
(S'\x07\xe1\x04\x0b\x14$\x16\x06tX'
p1081
tp1082
Rp1083
sVmturkStatus
p1084
VApproved
p1085
sVhitId
p1086
V3WRBLBQ2GR89DY1HN2B5L5E4S4FG06
p1087
sVuserAgent
p1088
(lp1089
VMozilla/5.0 (Windows NT 6.1; WOW64) AppleWebKit/537.36 (KHTML, like Gecko) Chrome/57.0.2987.133 Safari/537.36
p1090
asV_id
p1091
VhHentHZxKwXmSMrA4
p1092
sVbonusPayment
p1093
F1.1
sVbonusMessage
p1094
VThank you for participating. You earned 0.60 for Section 1, and 0.50 for Section 2.  \u000a
p1095
sa(dp1096
Vstatus
p1097
Vcompleted
p1098
sVexitdata
p1099
(dp1100
Vfeedback
p1101
g736
ssVsubmitTime
p1102
g9
(S'\x07\xe1\x04\x0b\x14,\x10\x08\xf8\xe0'
p1103
tp1104
Rp1105
sVinstances
p1106
(lp1107
(dp1108
VleaveTime
p1109
g9
(S'\x07\xe1\x04\x0b\x14,\x0e\x0cg\xc8'
p1110
tp1111
Rp1112
sVjoinTime
p1113
g9
(S"\x07\xe1\x04\x0b\x14'\x13\x0c{P"
p1114
tp1115
Rp1116
sVid
p1117
VFs5RjFBxoC6BxduBm
p1118
sasVassignmentId
p1119
V30BXRYBRP4XJ84V7QHRA2JVQLJ9WHP
p1120
sVworkerId
p1121
VA3N0QZ9ZKUCTCQ
p1122
sVipAddr
p1123
(lp1124
V172.17.0.4
p1125
asVbonusPaid
p1126
g9
(S'\x07\xe1\x04\x0c\x0f\x06\x14\x01\xb5\x80'
p1127
tp1128
Rp1129
sVbatchId
p1130
VdpmhLMSeHeJP8wGdo
p1131
sVacceptTime
p1132
g9
(S"\x07\xe1\x04\x0b\x14'\x0e\n\xe1("
p1133
tp1134
Rp1135
sVmturkStatus
p1136
VApproved
p1137
sVhitId
p1138
V3WRBLBQ2GR89DY1HN2B5L5E4S4FG06
p1139
sVuserAgent
p1140
(lp1141
VMozilla/5.0 (Windows NT 10.0; WOW64) AppleWebKit/537.36 (KHTML, like Gecko) Chrome/57.0.2987.133 Safari/537.36
p1142
asV_id
p1143
VR54fjFoknSGXReyKd
p1144
sVbonusPayment
p1145
F1.6
sVbonusMessage
p1146
VYour game earnings by section were 0.9 and 0.7
p1147
sa(dp1148
Vstatus
p1149
Vcompleted
p1150
sVexitdata
p1151
(dp1152
Vfeedback
p1153
g736
ssVsubmitTime
p1154
g9
(S'\x07\xe1\x04\x0b\x14-\x1e\x01~\xd0'
p1155
tp1156
Rp1157
sVinstances
p1158
(lp1159
(dp1160
VleaveTime
p1161
g9
(S'\x07\xe1\x04\x0b\x14-\x14\x03\x99\xe0'
p1162
tp1163
Rp1164
sVjoinTime
p1165
g9
(S'\x07\xe1\x04\x0b\x14(.\x04:\x08'
p1166
tp1167
Rp1168
sVid
p1169
VBg8Pj33c4Y25zB7rc
p1170
sasVassignmentId
p1171
V3QHK8ZVMIMIT6XGMMBAC7XBCSZ1BLW
p1172
sVworkerId
p1173
VA5TI9UQEPLNWI
p1174
sVipAddr
p1175
(lp1176
V172.17.0.4
p1177
asVbonusPaid
p1178
g9
(S'\x07\xe1\x04\x0c\x11&\x0e\x07K0'
p1179
tp1180
Rp1181
sVbatchId
p1182
VdpmhLMSeHeJP8wGdo
p1183
sVacceptTime
p1184
g9
(S'\x07\xe1\x04\x0b\x14(!\x0c\xb5\xe8'
p1185
tp1186
Rp1187
sVmturkStatus
p1188
VApproved
p1189
sVhitId
p1190
V3E6L1VR4XWMYD9R1E7L4CLOJ4SG6FD
p1191
sVuserAgent
p1192
(lp1193
VMozilla/5.0 (Windows NT 6.1; WOW64) AppleWebKit/537.36 (KHTML, like Gecko) Chrome/57.0.2987.133 Safari/537.36
p1194
asV_id
p1195
VmN8zfAEenkZHvAqud
p1196
sVbonusPayment
p1197
F1.4
sVbonusMessage
p1198
VThank you for participating. You earned 0.90 for Section 1, and 0.50 for Section 2.  \u000a
p1199
sa(dp1200
Vstatus
p1201
Vcompleted
p1202
sVexitdata
p1203
(dp1204
Vfeedback
p1205
VWay too hard. I dont' get it at all. ewwwww
p1206
ssVsubmitTime
p1207
g9
(S'\x07\xe1\x04\x0b\x15\x06\x1a\x01\xe4`'
p1208
tp1209
Rp1210
sVassignmentId
p1211
V3TPZPLC3M0CEUNR7ZAOD6VMK9HP3PV
p1212
sVworkerId
p1213
VAMYURTQIMAC8T
p1214
sVipAddr
p1215
(lp1216
V172.17.0.4
p1217
asVbatchId
p1218
VdpmhLMSeHeJP8wGdo
p1219
sVacceptTime
p1220
g9
(S'\x07\xe1\x04\x0b\x14)\x05\x01\x96@'
p1221
tp1222
Rp1223
sVmturkStatus
p1224
VApproved
p1225
sVhitId
p1226
V3E6L1VR4XWMYD9R1E7L4CLOJ4SG6FD
p1227
sVuserAgent
p1228
(lp1229
VMozilla/5.0 (Windows NT 10.0; Win64; x64) AppleWebKit/537.36 (KHTML, like Gecko) Chrome/46.0.2486.0 Safari/537.36 Edge/13.10586
p1230
asV_id
p1231
VqoTNsPdqvurAcjGZP
p1232
sVbonusPayment
p1233
I0
sa(dp1234
Vstatus
p1235
Vcompleted
p1236
sVexitdata
p1237
(dp1238
Vfeedback
p1239
g736
ssVsubmitTime
p1240
g9
(S'\x07\xe1\x04\x0b\x143\x1d\x06\xfd\x10'
p1241
tp1242
Rp1243
sVinstances
p1244
(lp1245
(dp1246
VleaveTime
p1247
g9
(S'\x07\xe1\x04\x0b\x143\x0b\x0b\x98\xc0'
p1248
tp1249
Rp1250
sVjoinTime
p1251
g9
(S'\x07\xe1\x04\x0b\x14.4\x01\x8ep'
p1252
tp1253
Rp1254
sVid
p1255
V93CBAo4HHinmifA28
p1256
sasVassignmentId
p1257
V3X66WABAJWI8HAY8WRYQCM8S8Q2G34
p1258
sVworkerId
p1259
VAA7ASGQEOMKEZ
p1260
sVipAddr
p1261
(lp1262
V172.17.0.4
p1263
asVbonusPaid
p1264
g9
(S'\x07\xe1\x04\x0c\x11(\x15\x02\x9f\xe0'
p1265
tp1266
Rp1267
sVbatchId
p1268
VdpmhLMSeHeJP8wGdo
p1269
sVacceptTime
p1270
g9
(S'\x07\xe1\x04\x0b\x14)#\x00Bh'
p1271
tp1272
Rp1273
sVmturkStatus
p1274
VApproved
p1275
sVhitId
p1276
V3MYASTQBG7BUP7WP2A4CUQ2PSGCDQ6
p1277
sVuserAgent
p1278
(lp1279
VMozilla/5.0 (Windows NT 10.0; Win64; x64) AppleWebKit/537.36 (KHTML, like Gecko) Chrome/57.0.2987.133 Safari/537.36
p1280
asV_id
p1281
Vo8CWnQyv9viwTGS9u
p1282
sVbonusPayment
p1283
F2.05
sVbonusMessage
p1284
VThank you for participating. You earned 0.35 for the quiz and survey, 0.80 for Section 1, and 0.90 for Section 2.  \u000a
p1285
sa(dp1286
Vstatus
p1287
Vcompleted
p1288
sVexitdata
p1289
(dp1290
Vfeedback
p1291
g736
ssVsubmitTime
p1292
g9
(S'\x07\xe1\x04\x0b\x15\x17\x05\r} '
p1293
tp1294
Rp1295
sVinstances
p1296
(lp1297
(dp1298
VleaveTime
p1299
g9
(S'\x07\xe1\x04\x0b\x15\x163\n\xa2\xa8'
p1300
tp1301
Rp1302
sVjoinTime
p1303
g9
(S'\x07\xe1\x04\x0b\x15\x13\n\x07\xfa\xf8'
p1304
tp1305
Rp1306
sVid
p1307
VDQ5ioohhhMainDwta
p1308
sasVassignmentId
p1309
V3PW9OPU9PQKMSDCMA8ZIMPZU0NI12D
p1310
sVworkerId
p1311
VA4J4GGMKJ68L0
p1312
sVipAddr
p1313
(lp1314
V172.17.0.4
p1315
asVbonusPaid
p1316
g9
(S'\x07\xe1\x04\x0c\x11+\x14\x08\xaa\xc0'
p1317
tp1318
Rp1319
sVbatchId
p1320
VdpmhLMSeHeJP8wGdo
p1321
sVacceptTime
p1322
g9
(S"\x07\xe1\x04\x0b\x15\x0e%\r'0"
p1323
tp1324
Rp1325
sVmturkStatus
p1326
VApproved
p1327
sVhitId
p1328
V35JDMRECC4984OGBV9AK6UG8M5DGEG
p1329
sVuserAgent
p1330
(lp1331
VMozilla/5.0 (Windows NT 5.1) AppleWebKit/537.36 (KHTML, like Gecko) Chrome/49.0.2623.112 Safari/537.36
p1332
asV_id
p1333
VuAczmzL3LKna8FAHk
p1334
sVbonusPayment
p1335
F1.65
sVbonusMessage
p1336
VThank you for participating. You earned 0.35 for the quiz and survey, 0.90 for Section 1, and 0.40 for Section 2.  \u000a
p1337
sa(dp1338
Vstatus
p1339
Vcompleted
p1340
sVexitdata
p1341
(dp1342
Vfeedback
p1343
g736
ssVsubmitTime
p1344
g9
(S'\x07\xe1\x04\x0b\x16\x11!\n\xe5\x10'
p1345
tp1346
Rp1347
sVinstances
p1348
(lp1349
(dp1350
VleaveTime
p1351
g9
(S'\x07\xe1\x04\x0b\x16\x11\x1f\x0e\t\xc0'
p1352
tp1353
Rp1354
sVjoinTime
p1355
g9
(S'\x07\xe1\x04\x0b\x16\t&\x08\xed('
p1356
tp1357
Rp1358
sVid
p1359
VKNz7gcuyTwiyu5A7q
p1360
sasVassignmentId
p1361
V3RXPCZQMQPBC77KT9NK7OTTVA6OG1C
p1362
sVworkerId
p1363
VA3N0QZ9ZKUCTCQ
p1364
sVipAddr
p1365
(lp1366
V172.17.0.4
p1367
asVbonusPaid
p1368
g9
(S'\x07\xe1\x04\x0c\x0f\x07\x05\n\xae`'
p1369
tp1370
Rp1371
sVbatchId
p1372
VdpmhLMSeHeJP8wGdo
p1373
sVacceptTime
p1374
g9
(S'\x07\xe1\x04\x0b\x16\t!\n\xd9X'
p1375
tp1376
Rp1377
sVmturkStatus
p1378
VApproved
p1379
sVhitId
p1380
V3MYASTQBG7BUP7WP2A4CUQ2PSGCDQ6
p1381
sVuserAgent
p1382
(lp1383
VMozilla/5.0 (Windows NT 10.0; WOW64) AppleWebKit/537.36 (KHTML, like Gecko) Chrome/57.0.2987.133 Safari/537.36
p1384
asV_id
p1385
VhLQg8LKEwZMfAbgeQ
p1386
sVbonusPayment
p1387
F1.6
sVbonusMessage
p1388
VYour game earnings by section were 0.7 and 0.9.
p1389
sa(dp1390
Vstatus
p1391
Vcompleted
p1392
sVexitdata
p1393
(dp1394
Vfeedback
p1395
g736
ssVsubmitTime
p1396
g9
(S'\x07\xe1\x04\x0b\x16\x17\x08\r\xcf('
p1397
tp1398
Rp1399
sVinstances
p1400
(lp1401
(dp1402
VleaveTime
p1403
g9
(S'\x07\xe1\x04\x0b\x16\x17\x02\x0b#\x90'
p1404
tp1405
Rp1406
sVjoinTime
p1407
g9
(S'\x07\xe1\x04\x0b\x16\x14\x16\x022\x80'
p1408
tp1409
Rp1410
sVid
p1411
VJ6xQz2EZZN2v2PjaT
p1412
sasVassignmentId
p1413
V3EA3QWIZ4IVRCI2X1U4KFBP6H27ITF
p1414
sVworkerId
p1415
VA3N0QZ9ZKUCTCQ
p1416
sVipAddr
p1417
(lp1418
V172.17.0.4
p1419
asVbonusPaid
p1420
g9
(S'\x07\xe1\x04\x0c\x0f\x07-\t\x99\x08'
p1421
tp1422
Rp1423
sVbatchId
p1424
VdpmhLMSeHeJP8wGdo
p1425
sVacceptTime
p1426
g9
(S'\x07\xe1\x04\x0b\x16\x11$\t\x89h'
p1427
tp1428
Rp1429
sVmturkStatus
p1430
VApproved
p1431
sVhitId
p1432
V3E6L1VR4XWMYD9R1E7L4CLOJ4SG6FD
p1433
sVuserAgent
p1434
(lp1435
VMozilla/5.0 (Windows NT 10.0; WOW64) AppleWebKit/537.36 (KHTML, like Gecko) Chrome/57.0.2987.133 Safari/537.36
p1436
asV_id
p1437
Va72K3FzXyPyBGt8XK
p1438
sVbonusPayment
p1439
F1.3
sVbonusMessage
p1440
VYour game earnings by section were 0.9 and 0.4
p1441
sa(dp1442
Vstatus
p1443
Vassigned
p1444
sVassignmentId
p1445
V39OWYR0EPKR3JDZ1ASLYKV4TGG8FYT
p1446
sVworkerId
p1447
VA1RJ2LORL5PJHS
p1448
sVipAddr
p1449
(lp1450
V172.17.0.4
p1451
asVbatchId
p1452
VdpmhLMSeHeJP8wGdo
p1453
sVacceptTime
p1454
g9
(S'\x07\xe1\x04\r\x01*\t\x0e)\x00'
p1455
tp1456
Rp1457
sVhitId
p1458
V3ZQX1VYFTD5FN0NI6P1SJTTO3IFO8A
p1459
sVuserAgent
p1460
(lp1461
VMozilla/5.0 (Windows NT 10.0; WOW64) AppleWebKit/537.36 (KHTML, like Gecko) Chrome/57.0.2987.133 Safari/537.36
p1462
asV_id
p1463
V8hnw7c3Zi88NR8EJq
p1464
sa(dp1465
Vstatus
p1466
Vassigned
p1467
sVassignmentId
p1468
V3018Q3ZVOIQZQL67LH7CYY05GDGAR9
p1469
sVworkerId
p1470
VA3EBUBRYCKB6AF
p1471
sVipAddr
p1472
(lp1473
V172.17.0.4
p1474
asVbatchId
p1475
VdpmhLMSeHeJP8wGdo
p1476
sVacceptTime
p1477
g9
(S'\x07\xe1\x04\r\x01*\x0c\r\xea\x80'
p1478
tp1479
Rp1480
sVhitId
p1481
V3H781YYV6TIC9T2HF99R5DVXDTUETL
p1482
sVuserAgent
p1483
(lp1484
VMozilla/5.0 (Windows NT 6.1; WOW64; rv:50.0) Gecko/20100101 Firefox/50.0
p1485
asV_id
p1486
V4tdDYAfGKbCkAdkqr
p1487
sa(dp1488
Vstatus
p1489
Vcompleted
p1490
sVexitdata
p1491
(dp1492
Vfeedback
p1493
g736
ssVsubmitTime
p1494
g9
(S'\x07\xe1\x04\r\x02\x156\r\xbf\x88'
p1495
tp1496
Rp1497
sVinstances
p1498
(lp1499
(dp1500
VleaveTime
p1501
g9
(S'\x07\xe1\x04\r\x02\x15(\x06MH'
p1502
tp1503
Rp1504
sVjoinTime
p1505
g9
(S'\x07\xe1\x04\r\x02\r(\x02\xc6\xf0'
p1506
tp1507
Rp1508
sVid
p1509
V28b6maTrvjbs2hZWq
p1510
sasVassignmentId
p1511
V3WZ36BJEV3GHPAORVKC3TOLTMGXTBZ
p1512
sVworkerId
p1513
VA21SIPO89DP66I
p1514
sVipAddr
p1515
(lp1516
V172.17.0.4
p1517
asVbonusPaid
p1518
g9
(S'\x07\xe1\x04\r\x02 #\t\xac\x90'
p1519
tp1520
Rp1521
sVbatchId
p1522
VdpmhLMSeHeJP8wGdo
p1523
sVacceptTime
p1524
g9
(S'\x07\xe1\x04\r\x01*\x0e\n\\X'
p1525
tp1526
Rp1527
sVmturkStatus
p1528
VApproved
p1529
sVhitId
p1530
V3H781YYV6TIC9T2HF99R5DVXDTUETL
p1531
sVuserAgent
p1532
(lp1533
VMozilla/5.0 (Windows NT 10.0; Win64; x64) AppleWebKit/537.36 (KHTML, like Gecko) Chrome/57.0.2987.133 Safari/537.36
p1534
asV_id
p1535
VXrPcYfPoayzH59P4v
p1536
sVbonusPayment
p1537
F1.1
sVbonusMessage
p1538
VThank you for participating. The bonus represents your combined earnings from Section 1, Section 2 and, if this was your first time, the quiz and the survey.
p1539
sa(dp1540
Vstatus
p1541
Vcompleted
p1542
sVexitdata
p1543
(dp1544
Vfeedback
p1545
g736
ssVsubmitTime
p1546
g9
(S'\x07\xe1\x04\r\x011\x02\x00\x98X'
p1547
tp1548
Rp1549
sVinstances
p1550
(lp1551
(dp1552
VleaveTime
p1553
g9
(S'\x07\xe1\x04\r\x010-\x0c\xdc\xf8'
p1554
tp1555
Rp1556
sVjoinTime
p1557
g9
(S'\x07\xe1\x04\r\x01.\n\r\xeeh'
p1558
tp1559
Rp1560
sVid
p1561
VWKywZGBCyskWK7QPT
p1562
sasVassignmentId
p1563
V3NVC2EB65QZ831J8QXKWJMFWDQ33Y8
p1564
sVworkerId
p1565
VA3UUH3632AI3ZX
p1566
sVipAddr
p1567
(lp1568
V172.17.0.4
p1569
asVbonusPaid
p1570
g9
(S'\x07\xe1\x04\r\x02 "\x0e\xa2\x18'
p1571
tp1572
Rp1573
sVbatchId
p1574
VdpmhLMSeHeJP8wGdo
p1575
sVacceptTime
p1576
g9
(S'\x07\xe1\x04\r\x01*\x10\x0b\xcfp'
p1577
tp1578
Rp1579
sVmturkStatus
p1580
VApproved
p1581
sVhitId
p1582
V3ZQX1VYFTD5FN0NI6P1SJTTO3IFO8A
p1583
sVuserAgent
p1584
(lp1585
VMozilla/5.0 (Windows NT 6.1; WOW64) AppleWebKit/537.36 (KHTML, like Gecko) Chrome/57.0.2987.133 Safari/537.36
p1586
asV_id
p1587
V2rdHxGb4fHs9sMkaq
p1588
sVbonusPayment
p1589
I2
sVbonusMessage
p1590
VThank you for participating. The bonus represents your combined earnings from Section 1, Section 2 and, if this was your first time, the quiz and the survey.
p1591
sa(dp1592
Vstatus
p1593
Vcompleted
p1594
sVexitdata
p1595
(dp1596
Vfeedback
p1597
g736
ssVsubmitTime
p1598
g9
(S'\x07\xe1\x04\r\x016$\x0c\xd9\x10'
p1599
tp1600
Rp1601
sVinstances
p1602
(lp1603
(dp1604
VleaveTime
p1605
g9
(S'\x07\xe1\x04\r\x016\x12\r\xa0H'
p1606
tp1607
Rp1608
sVjoinTime
p1609
g9
(S'\x07\xe1\x04\r\x011\x07\x0e\xa9\xe8'
p1610
tp1611
Rp1612
sVid
p1613
VLThb8z2z5vZ2B2wqY
p1614
sasVassignmentId
p1615
V3R9WASFE2ZG3O3966ENHY2DVMACFZK
p1616
sVworkerId
p1617
VA15NPTZ0JH7TB9
p1618
sVipAddr
p1619
(lp1620
V172.17.0.4
p1621
asVbonusPaid
p1622
g9
(S'\x07\xe1\x04\r\x02 #\x02\xf9\xb8'
p1623
tp1624
Rp1625
sVbatchId
p1626
VdpmhLMSeHeJP8wGdo
p1627
sVacceptTime
p1628
g9
(S'\x07\xe1\x04\r\x01*\x19\nD\xe8'
p1629
tp1630
Rp1631
sVmturkStatus
p1632
VApproved
p1633
sVhitId
p1634
V3H781YYV6TIC9T2HF99R5DVXDTUETL
p1635
sVuserAgent
p1636
(lp1637
VMozilla/5.0 (Linux; Android 5.1.1; LGMS330 Build/LMY47V) AppleWebKit/537.36 (KHTML, like Gecko) Chrome/54.0.2840.85 Mobile Safari/537.36
p1638
asV_id
p1639
Vn4sRJdKrSMbKrcxEa
p1640
sVbonusPayment
p1641
F0.7000000000000001
sVbonusMessage
p1642
VThank you for participating. The bonus represents your combined earnings from Section 1, Section 2 and, if this was your first time, the quiz and the survey.
p1643
sa(dp1644
Vstatus
p1645
Vassigned
p1646
sVassignmentId
p1647
V3M1CVSFP605ZEKR782ICT8Q0KREAQ8
p1648
sVworkerId
p1649
VA1NM7ZPZ3NH412
p1650
sVipAddr
p1651
(lp1652
V172.17.0.4
p1653
asVbatchId
p1654
VdpmhLMSeHeJP8wGdo
p1655
sVacceptTime
p1656
g9
(S'\x07\xe1\x04\r\x01+\x19\x04p\xb8'
p1657
tp1658
Rp1659
sVhitId
p1660
V3ZQX1VYFTD5FN0NI6P1SJTTO3IFO8A
p1661
sVuserAgent
p1662
(lp1663
VMozilla/5.0 (Windows NT 10.0; WOW64) AppleWebKit/537.36 (KHTML, like Gecko) Chrome/57.0.2987.133 Safari/537.36
p1664
asV_id
p1665
VcwrqTdGbNjweB5wmB
p1666
sa(dp1667
Vstatus
p1668
Vcompleted
p1669
sVexitdata
p1670
(dp1671
Vfeedback
p1672
g736
ssVsubmitTime
p1673
g9
(S'\x07\xe1\x04\r\x018&\x0b\xe6\xe0'
p1674
tp1675
Rp1676
sVinstances
p1677
(lp1678
(dp1679
VleaveTime
p1680
g9
(S'\x07\xe1\x04\r\x018\x1a\x04\x16\xe0'
p1681
tp1682
Rp1683
sVjoinTime
p1684
g9
(S'\x07\xe1\x04\r\x012*\x0b\x10\x08'
p1685
tp1686
Rp1687
sVid
p1688
VardZMkNuNQ8MuHQ7Y
p1689
sasVassignmentId
p1690
V351SEKWQS0H6RCWR0J2X20E1VTEMDZ
p1691
sVworkerId
p1692
VA3N0QZ9ZKUCTCQ
p1693
sVipAddr
p1694
(lp1695
V172.17.0.4
p1696
asVbonusPaid
p1697
g9
(S'\x07\xe1\x04\r\x02\x1d\x06\x06\x9fP'
p1698
tp1699
Rp1700
sVbatchId
p1701
VdpmhLMSeHeJP8wGdo
p1702
sVacceptTime
p1703
g9
(S'\x07\xe1\x04\r\x01/\x17\t\x1c\x08'
p1704
tp1705
Rp1706
sVmturkStatus
p1707
VApproved
p1708
sVhitId
p1709
V3H781YYV6TIC9T2HF99R5DVXDTUETL
p1710
sVuserAgent
p1711
(lp1712
VMozilla/5.0 (Windows NT 10.0; WOW64) AppleWebKit/537.36 (KHTML, like Gecko) Chrome/57.0.2987.133 Safari/537.36
p1713
asV_id
p1714
VipARdAck6qvDqbocM
p1715
sVbonusPayment
p1716
F1.3
sVbonusMessage
p1717
VThank you for participating again. You earned 0.50 for Section 1, and 0.80 for Section 2.  
p1718
sa(dp1719
Vstatus
p1720
Vcompleted
p1721
sVexitdata
p1722
(dp1723
Vfeedback
p1724
g736
ssVsubmitTime
p1725
g9
(S'\x07\xe1\x04\r\x02\x04\x07\x05\xc4\x90'
p1726
tp1727
Rp1728
sVinstances
p1729
(lp1730
(dp1731
VleaveTime
p1732
g9
(S'\x07\xe1\x04\r\x02\x04\x05\x03,\x80'
p1733
tp1734
Rp1735
sVjoinTime
p1736
g9
(S'\x07\xe1\x04\r\x01:\x07\x00R\x08'
p1737
tp1738
Rp1739
sVid
p1740
VExbE5XnkZByYiSQb9
p1741
sasVassignmentId
p1742
V3QAPZX2QN4DMLOR4EPVI8KGKVZP20W
p1743
sVworkerId
p1744
VA3N0QZ9ZKUCTCQ
p1745
sVipAddr
p1746
(lp1747
V172.17.0.4
p1748
asVbonusPaid
p1749
g9
(S'\x07\xe1\x04\r\x02 #\x06\x9bh'
p1750
tp1751
Rp1752
sVbatchId
p1753
VdpmhLMSeHeJP8wGdo
p1754
sVacceptTime
p1755
g9
(S'\x07\xe1\x04\r\x018)\x08\xb6x'
p1756
tp1757
Rp1758
sVmturkStatus
p1759
VApproved
p1760
sVhitId
p1761
V3ZQX1VYFTD5FN0NI6P1SJTTO3IFO8A
p1762
sVuserAgent
p1763
(lp1764
VMozilla/5.0 (Windows NT 10.0; WOW64) AppleWebKit/537.36 (KHTML, like Gecko) Chrome/57.0.2987.133 Safari/537.36
p1765
asV_id
p1766
V7KCpD6aNN8XWSHFoA
p1767
sVbonusPayment
p1768
F0.9000000000000001
sVbonusMessage
p1769
VThank you for participating. The bonus represents your combined earnings from Section 1, Section 2 and, if this was your first time, the quiz and the survey.
p1770
sa(dp1771
Vstatus
p1772
Vcompleted
p1773
sVexitdata
p1774
(dp1775
Vfeedback
p1776
VEverything was clear and easy to understand.
p1777
ssVsubmitTime
p1778
g9
(S"\x07\xe1\x04\r\x03'\x02\x0b'x"
p1779
tp1780
Rp1781
sVinstances
p1782
(lp1783
(dp1784
VleaveTime
p1785
g9
(S'\x07\xe1\x04\r\x03&2\x010\xb0'
p1786
tp1787
Rp1788
sVjoinTime
p1789
g9
(S'\x07\xe1\x04\r\x03!\x1b\x03\xadh'
p1790
tp1791
Rp1792
sVid
p1793
VQrFgto42vfmij8KDs
p1794
sasVassignmentId
p1795
V3UNH76FOCS59PNRIWFPBFLO2DIPMYE
p1796
sVworkerId
p1797
VA27MJOV91GA8R3
p1798
sVipAddr
p1799
(lp1800
V172.17.0.4
p1801
asVbonusPaid
p1802
g9
(S'\x07\xe1\x04\r\x11\x1f-\x01O\xf0'
p1803
tp1804
Rp1805
sVbatchId
p1806
VdpmhLMSeHeJP8wGdo
p1807
sVacceptTime
p1808
g9
(S'\x07\xe1\x04\r\x02)\x04\x0c{P'
p1809
tp1810
Rp1811
sVmturkStatus
p1812
VApproved
p1813
sVhitId
p1814
V3YLPJ8OXX8D1Y8E8VDYBLU4CD254X9
p1815
sVuserAgent
p1816
(lp1817
VMozilla/5.0 (Windows NT 6.1; Win64; x64) AppleWebKit/537.36 (KHTML, like Gecko) Chrome/57.0.2987.133 Safari/537.36
p1818
asV_id
p1819
VAcJFBeCTEomyEJ6ez
p1820
sVbonusPayment
p1821
F1.6
sVbonusMessage
p1822
VThank you for you participation. This bonus combines your earnings from Section 1 and Section 2, and, if this was your first time, the quiz and survey were worth 0.40 together.  You are welcome to repeat this experiment a number of times as you see more assignments come up.
p1823
sa(dp1824
Vstatus
p1825
Vcompleted
p1826
sVexitdata
p1827
(dp1828
Vfeedback
p1829
g736
ssVsubmitTime
p1830
g9
(S'\x07\xe1\x04\r\x02,\x0e\x0c\xf0\x80'
p1831
tp1832
Rp1833
sVinstances
p1834
(lp1835
(dp1836
VleaveTime
p1837
g9
(S'\x07\xe1\x04\r\x02,\x08\x0eoP'
p1838
tp1839
Rp1840
sVjoinTime
p1841
g9
(S'\x07\xe1\x04\r\x02)*\x00u0'
p1842
tp1843
Rp1844
sVid
p1845
VreseS53b2L497HRxD
p1846
sasVassignmentId
p1847
V3TK8OJTYM1LY6WTQJKUJPQE306YPV4
p1848
sVworkerId
p1849
VA15FXHC1CVNW31
p1850
sVipAddr
p1851
(lp1852
V172.17.0.4
p1853
asVbonusPaid
p1854
g9
(S"\x07\xe1\x04\r\x11\x1f'\x04\x03X"
p1855
tp1856
Rp1857
sVbatchId
p1858
VdpmhLMSeHeJP8wGdo
p1859
sVacceptTime
p1860
g9
(S'\x07\xe1\x04\r\x02)\x04\ry8'
p1861
tp1862
Rp1863
sVmturkStatus
p1864
VApproved
p1865
sVhitId
p1866
V3GS542CVJVNTTV0A62B7AJO86V959W
p1867
sVuserAgent
p1868
(lp1869
VMozilla/5.0 (Windows NT 6.1; WOW64) AppleWebKit/537.36 (KHTML, like Gecko) Chrome/57.0.2987.133 Safari/537.36
p1870
asV_id
p1871
VNJpAGdk9p5wQwnQTi
p1872
sVbonusPayment
p1873
F1.7000000000000002
sVbonusMessage
p1874
VThank you for you participation. This bonus combines your earnings from Section 1 and Section 2, and, if this was your first time, the quiz and survey were worth 0.40 together.  You are welcome to repeat this experiment a number of times as you see more assignments come up.
p1875
sa(dp1876
Vstatus
p1877
Vcompleted
p1878
sVexitdata
p1879
(dp1880
Vfeedback
p1881
g736
ssVsubmitTime
p1882
g9
(S'\x07\xe1\x04\r\x026\x11\x0e~\xf0'
p1883
tp1884
Rp1885
sVinstances
p1886
(lp1887
(dp1888
VleaveTime
p1889
g9
(S'\x07\xe1\x04\r\x026\x03\x08\xca\x00'
p1890
tp1891
Rp1892
sVjoinTime
p1893
g9
(S'\x07\xe1\x04\r\x020#\x0c5\x00'
p1894
tp1895
Rp1896
sVid
p1897
VwpD2pNw4mRnbKLbNK
p1898
sasVassignmentId
p1899
V3GNA64GUZE428EFQD6RVLXAESEIQ5P
p1900
sVworkerId
p1901
VA3SWVCOJPJM7KQ
p1902
sVipAddr
p1903
(lp1904
V172.17.0.4
p1905
asVbonusPaid
p1906
g9
(S'\x07\xe1\x04\r\x10;\x06\x04h\xe8'
p1907
tp1908
Rp1909
sVbatchId
p1910
VdpmhLMSeHeJP8wGdo
p1911
sVacceptTime
p1912
g9
(S'\x07\xe1\x04\r\x02)\x17\x04\xb7\x08'
p1913
tp1914
Rp1915
sVmturkStatus
p1916
VApproved
p1917
sVhitId
p1918
V3YLPJ8OXX8D1Y8E8VDYBLU4CD254X9
p1919
sVuserAgent
p1920
(lp1921
VMozilla/5.0 (Windows NT 6.1; WOW64) AppleWebKit/537.36 (KHTML, like Gecko) Chrome/57.0.2987.133 Safari/537.36
p1922
asV_id
p1923
VyFN8k3YmjjxRNqdu3
p1924
sVbonusPayment
p1925
F1.9
sVbonusMessage
p1926
VAccording to my logs, you may have been dealing with lag or some other problem.  I think I found the issue, but if you have any other information, it will be very helpful in preventing others from facing the same problem. You made 8 points in section 1 and 7 in section 2.  \u000a
p1927
sa(dp1928
Vstatus
p1929
Vcompleted
p1930
sVexitdata
p1931
(dp1932
Vfeedback
p1933
g736
ssVsubmitTime
p1934
g9
(S'\x07\xe1\x04\r\x03\x04\x17\x03\x99\xe0'
p1935
tp1936
Rp1937
sVinstances
p1938
(lp1939
(dp1940
VleaveTime
p1941
g9
(S'\x07\xe1\x04\r\x03\x04\x0b\x0e\x11\x90'
p1942
tp1943
Rp1944
sVjoinTime
p1945
g9
(S'\x07\xe1\x04\r\x03\x01\x1b\x02\x9f\xe0'
p1946
tp1947
Rp1948
sVid
p1949
Vo8DQZQn8Xi63hiui3
p1950
sasVassignmentId
p1951
V3Z3ZLGNNSIUZUZSMZN3260CUEIRQ3Z
p1952
sVworkerId
p1953
VA2O7H7VXLFN6BP
p1954
sVipAddr
p1955
(lp1956
V172.17.0.4
p1957
asVbonusPaid
p1958
g9
(S'\x07\xe1\x04\r\x11\x1f+\tG\x00'
p1959
tp1960
Rp1961
sVbatchId
p1962
VdpmhLMSeHeJP8wGdo
p1963
sVacceptTime
p1964
g9
(S'\x07\xe1\x04\r\x02)\x18\x00m`'
p1965
tp1966
Rp1967
sVmturkStatus
p1968
VApproved
p1969
sVhitId
p1970
V3XQ4XW3OD9CJZDDMXP90T7QME972S3
p1971
sVuserAgent
p1972
(lp1973
VMozilla/5.0 (Windows NT 6.1; WOW64) AppleWebKit/537.36 (KHTML, like Gecko) Chrome/57.0.2987.133 Safari/537.36
p1974
asV_id
p1975
V7qNt4jFCxXQA5k7uy
p1976
sVbonusPayment
p1977
F2.2
sVbonusMessage
p1978
VThank you for you participation. This bonus combines your earnings from Section 1 and Section 2, and, if this was your first time, the quiz and survey were worth 0.40 together.  You are welcome to repeat this experiment a number of times as you see more assignments come up.
p1979
sa(dp1980
Vstatus
p1981
Vcompleted
p1982
sVexitdata
p1983
(dp1984
Vfeedback
p1985
Vnice oe
p1986
ssVsubmitTime
p1987
g9
(S'\x07\xe1\x04\r\x028\x10\x01kH'
p1988
tp1989
Rp1990
sVinstances
p1991
(lp1992
(dp1993
VleaveTime
p1994
g9
(S'\x07\xe1\x04\r\x028\x07\x077\xa8'
p1995
tp1996
Rp1997
sVjoinTime
p1998
g9
(S'\x07\xe1\x04\r\x021\x15\r:\xb8'
p1999
tp2000
Rp2001
sVid
p2002
VTzvmcMFmRDMmyeLGm
p2003
sasVassignmentId
p2004
V3JBT3HLQF82FFGY0KHJMAWRZOH4PZ4
p2005
sVworkerId
p2006
VA22847MKXI8ZYQ
p2007
sVipAddr
p2008
(lp2009
V172.17.0.4
p2010
asVbonusPaid
p2011
g9
(S'\x07\xe1\x04\r\x10*\r\x07V\xe8'
p2012
tp2013
Rp2014
sVbatchId
p2015
VdpmhLMSeHeJP8wGdo
p2016
sVacceptTime
p2017
g9
(S'\x07\xe1\x04\r\x02)\x18\n\xf4\xb0'
p2018
tp2019
Rp2020
sVmturkStatus
p2021
VApproved
p2022
sVhitId
p2023
V3GVPRXWRPHU1R07WYPWHLW17GRR7IW
p2024
sVuserAgent
p2025
(lp2026
VMozilla/5.0 (Windows NT 6.1; WOW64) AppleWebKit/537.36 (KHTML, like Gecko) Chrome/57.0.2987.133 Safari/537.36
p2027
asV_id
p2028
VdE46ikumjXofC3Grm
p2029
sVbonusPayment
p2030
F1.4
sVbonusMessage
p2031
VYour payments weren't complete on my end: Could you tell me if you were experiencing lags?  I think I found the issue, but if you have any other information, it will be very helpful in preventing others from facing the same problem.  In the meantime, one of your outcomes couldn't be calculated, so I am paying you the maximum of 0.30 cents. you made 0.7 in section 1 and 0.3 in section 2.  
p2032
sa(dp2033
Vstatus
p2034
Vassigned
p2035
sVassignmentId
p2036
V33M4IA01QG1BMYE0WRZQI6B3HZUXR7
p2037
sVworkerId
p2038
VA2BA9Y6VGW6WS1
p2039
sVipAddr
p2040
(lp2041
V172.17.0.4
p2042
asVbatchId
p2043
VdpmhLMSeHeJP8wGdo
p2044
sVacceptTime
p2045
g9
(S'\x07\xe1\x04\r\x02)!\x0c\xb9\xd0'
p2046
tp2047
Rp2048
sVhitId
p2049
V3YLPJ8OXX8D1Y8E8VDYBLU4CD254X9
p2050
sVuserAgent
p2051
(lp2052
VMozilla/5.0 (Windows NT 10.0; WOW64) AppleWebKit/537.36 (KHTML, like Gecko) Chrome/57.0.2987.133 Safari/537.36
p2053
asV_id
p2054
VFe9mqA4GJjHruWSiy
p2055
sa(dp2056
Vstatus
p2057
Vcompleted
p2058
sVexitdata
p2059
(dp2060
Vfeedback
p2061
g736
ssVsubmitTime
p2062
g9
(S'\x07\xe1\x04\r\x04\x0c#\x08T\xd0'
p2063
tp2064
Rp2065
sVinstances
p2066
(lp2067
(dp2068
VleaveTime
p2069
g9
(S'\x07\xe1\x04\r\x04\x0b0\x06.\x08'
p2070
tp2071
Rp2072
sVjoinTime
p2073
g9
(S'\x07\xe1\x04\r\x04\x06;\x02q\x00'
p2074
tp2075
Rp2076
sVid
p2077
VvH7eeGGygX6hSTXop
p2078
sasVassignmentId
p2079
V3OF2M9AATGOE4P1K7PEEEF50U7YKZY
p2080
sVworkerId
p2081
VA1WK3G97IIQ3OJ
p2082
sVipAddr
p2083
(lp2084
V172.17.0.4
p2085
asVbonusPaid
p2086
g9
(S'\x07\xe1\x04\x0e\x03\x08%\n\xa6\x90'
p2087
tp2088
Rp2089
sVbatchId
p2090
VdpmhLMSeHeJP8wGdo
p2091
sVacceptTime
p2092
g9
(S'\x07\xe1\x04\r\x02)&\x02\x98\x10'
p2093
tp2094
Rp2095
sVmturkStatus
p2096
VApproved
p2097
sVhitId
p2098
V3GS542CVJVNTTV0A62B7AJO86V959W
p2099
sVuserAgent
p2100
(lp2101
VMozilla/5.0 (Windows NT 10.0; Win64; x64) AppleWebKit/537.36 (KHTML, like Gecko) Chrome/57.0.2987.133 Safari/537.36
p2102
asV_id
p2103
VF59Xo2jJ4bqdmgL2q
p2104
sVbonusPayment
p2105
F1.9
sVbonusMessage
p2106
VHello, I don't know if you experienced any problems (please let me know!), like lag maybe, or having to press a button multiple times? Due to errors on my end, 4 out of 6 of your outcomes were not logged.  Between the 2 that were logged, you earned 0.30.  I will give you the maximum of 0.30 for the other 4 choices, plus 0.40 for the quiz and survey, for a total of 1.90.  Thank you for your participation.    Any information you have about what you experienced on your side will help me prevent others from facing the same issues.
p2107
sa(dp2108
Vstatus
p2109
Vcompleted
p2110
sVexitdata
p2111
(dp2112
Vfeedback
p2113
VThis was absolutely fantastic to participate in!! 
p2114
ssVsubmitTime
p2115
g9
(S'\x07\xe1\x04\r\x029.\x06\x9fP'
p2116
tp2117
Rp2118
sVinstances
p2119
(lp2120
(dp2121
VleaveTime
p2122
g9
(S'\x07\xe1\x04\r\x0282\r\x13\xa8'
p2123
tp2124
Rp2125
sVjoinTime
p2126
g9
(S'\x07\xe1\x04\r\x02/:\n\x19\xf0'
p2127
tp2128
Rp2129
sVid
p2130
V4feanyYcwBjRqFu7T
p2131
sasVassignmentId
p2132
V3DHE4R9OCWBJWS2PSRKLTC302HIG2J
p2133
sVworkerId
p2134
VAJL536DIQQTGO
p2135
sVipAddr
p2136
(lp2137
V172.17.0.4
p2138
asVbonusPaid
p2139
g9
(S'\x07\xe1\x04\r\x11\x1f(\x0e\xd4\xe0'
p2140
tp2141
Rp2142
sVbatchId
p2143
VdpmhLMSeHeJP8wGdo
p2144
sVacceptTime
p2145
g9
(S'\x07\xe1\x04\r\x02))\x03\tX'
p2146
tp2147
Rp2148
sVmturkStatus
p2149
VApproved
p2150
sVhitId
p2151
V3XQ4XW3OD9CJZDDMXP90T7QME972S3
p2152
sVuserAgent
p2153
(lp2154
VMozilla/5.0 (Windows NT 10.0; Win64; x64) AppleWebKit/537.36 (KHTML, like Gecko) Chrome/56.0.2924.87 Safari/537.36
p2155
asV_id
p2156
VL27BFxPxH3G8N5T3j
p2157
sVbonusPayment
p2158
I2
sVbonusMessage
p2159
VThank you for you participation. This bonus combines your earnings from Section 1 and Section 2, and, if this was your first time, the quiz and survey were worth 0.40 together.  You are welcome to repeat this experiment a number of times as you see more assignments come up.
p2160
sa(dp2161
Vstatus
p2162
Vcompleted
p2163
sVexitdata
p2164
(dp2165
Vfeedback
p2166
g736
ssVsubmitTime
p2167
g9
(S'\x07\xe1\x04\r\x0265\n\xae`'
p2168
tp2169
Rp2170
sVinstances
p2171
(lp2172
(dp2173
VleaveTime
p2174
g9
(S'\x07\xe1\x04\r\x026*\r\x13\xa8'
p2175
tp2176
Rp2177
sVjoinTime
p2178
g9
(S'\x07\xe1\x04\r\x021\x00\x07\x00\xf8'
p2179
tp2180
Rp2181
sVid
p2182
VuPjsYeZ6mTFPCe4hY
p2183
sasVassignmentId
p2184
V3QIYRE09Y3HIHZ1FWRX2ED2SBNQN1H
p2185
sVworkerId
p2186
VAOWW3URQNRJ6U
p2187
sVipAddr
p2188
(lp2189
V172.17.0.4
p2190
asVbonusPaid
p2191
g9
(S'\x07\xe1\x04\r\x11\x1f(\x02\x90@'
p2192
tp2193
Rp2194
sVbatchId
p2195
VdpmhLMSeHeJP8wGdo
p2196
sVacceptTime
p2197
g9
(S'\x07\xe1\x04\r\x02)+\x08`\x88'
p2198
tp2199
Rp2200
sVmturkStatus
p2201
VApproved
p2202
sVhitId
p2203
V3GS542CVJVNTTV0A62B7AJO86V959W
p2204
sVuserAgent
p2205
(lp2206
VMozilla/5.0 (Windows NT 10.0; WOW64; rv:52.0) Gecko/20100101 Firefox/52.0
p2207
asV_id
p2208
VTNtBdhDmcrti2Cn7D
p2209
sVbonusPayment
p2210
F1.3
sVbonusMessage
p2211
VThank you for you participation. This bonus combines your earnings from Section 1 and Section 2, and, if this was your first time, the quiz and survey were worth 0.40 together.  You are welcome to repeat this experiment a number of times as you see more assignments come up.
p2212
sa(dp2213
Vstatus
p2214
Vassigned
p2215
sVassignmentId
p2216
V3TEM0PF1Q5X9OYPKBEFZ437OSRJ0DA
p2217
sVworkerId
p2218
VA3T61LJ1WNOL6Z
p2219
sVipAddr
p2220
(lp2221
V172.17.0.4
p2222
asVbatchId
p2223
VdpmhLMSeHeJP8wGdo
p2224
sVacceptTime
p2225
g9
(S'\x07\xe1\x04\r\x02)-\x00\xa0('
p2226
tp2227
Rp2228
sVhitId
p2229
V3GVPRXWRPHU1R07WYPWHLW17GRR7IW
p2230
sVuserAgent
p2231
(lp2232
VMozilla/5.0 (Windows NT 10.0; Win64; x64) AppleWebKit/537.36 (KHTML, like Gecko) Chrome/57.0.2987.133 Safari/537.36
p2233
asV_id
p2234
VCuyJ2dGbQ8xM3Hz7y
p2235
sa(dp2236
Vstatus
p2237
Vcompleted
p2238
sVexitdata
p2239
(dp2240
Vfeedback
p2241
g736
ssVsubmitTime
p2242
g9
(S'\x07\xe1\x04\r\x03\x02\x06\x0be\xf8'
p2243
tp2244
Rp2245
sVinstances
p2246
(lp2247
(dp2248
VleaveTime
p2249
g9
(S'\x07\xe1\x04\r\x03\x01&\tN\xd0'
p2250
tp2251
Rp2252
sVjoinTime
p2253
g9
(S'\x07\xe1\x04\r\x023\x14\x08\xae\xa8'
p2254
tp2255
Rp2256
sVid
p2257
Vsf6jsqpZMHiSiWtB8
p2258
sasVassignmentId
p2259
V3OVR4I9USPJKCVBQZ18LG540SINQ4K
p2260
sVworkerId
p2261
VAGVUHOBSCP6YC
p2262
sVipAddr
p2263
(lp2264
V172.17.0.4
p2265
asVbonusPaid
p2266
g9
(S'\x07\xe1\x04\r\x11\x1f*\x03\xef\xd0'
p2267
tp2268
Rp2269
sVbatchId
p2270
VdpmhLMSeHeJP8wGdo
p2271
sVacceptTime
p2272
g9
(S'\x07\xe1\x04\r\x02)/\n\xd5p'
p2273
tp2274
Rp2275
sVmturkStatus
p2276
VApproved
p2277
sVhitId
p2278
V3XQ4XW3OD9CJZDDMXP90T7QME972S3
p2279
sVuserAgent
p2280
(lp2281
VMozilla/5.0 (Windows NT 10.0; WOW64) AppleWebKit/537.36 (KHTML, like Gecko) Chrome/57.0.2987.111 Safari/537.36 Vivaldi/1.8.770.50
p2282
asV_id
p2283
VrqKeAp9dnav2r3pgM
p2284
sVbonusPayment
p2285
F1.8
sVbonusMessage
p2286
VThank you for you participation. This bonus combines your earnings from Section 1 and Section 2, and, if this was your first time, the quiz and survey were worth 0.40 together.  You are welcome to repeat this experiment a number of times as you see more assignments come up.
p2287
sa(dp2288
Vstatus
p2289
Vcompleted
p2290
sVexitdata
p2291
(dp2292
Vfeedback
p2293
g736
ssVsubmitTime
p2294
g9
(S'\x07\xe1\x04\r\x06\t(\x05\x82('
p2295
tp2296
Rp2297
sVinstances
p2298
(lp2299
(dp2300
VleaveTime
p2301
g9
(S"\x07\xe1\x04\r\x06\t\x18\r'0"
p2302
tp2303
Rp2304
sVjoinTime
p2305
g9
(S'\x07\xe1\x04\r\x06\x041\x08AH'
p2306
tp2307
Rp2308
sVid
p2309
VtG7tBWRrNnLXAw89i
p2310
sasVassignmentId
p2311
V3UWN2HHPUY5IBJ099ACMAEP11N3SN6
p2312
sVworkerId
p2313
VA1CE2XPYCDRHVZ
p2314
sVipAddr
p2315
(lp2316
V172.17.0.4
p2317
asVbonusPaid
p2318
g9
(S'\x07\xe1\x04\r\x11 \x00\x0b\xbf\xd0'
p2319
tp2320
Rp2321
sVbatchId
p2322
VdpmhLMSeHeJP8wGdo
p2323
sVacceptTime
p2324
g9
(S'\x07\xe1\x04\r\x02)1\x05\xd40'
p2325
tp2326
Rp2327
sVmturkStatus
p2328
VApproved
p2329
sVhitId
p2330
V3GVPRXWRPHU1R07WYPWHLW17GRR7IW
p2331
sVuserAgent
p2332
(lp2333
VMozilla/5.0 (Windows NT 10.0; WOW64) AppleWebKit/537.36 (KHTML, like Gecko) Chrome/57.0.2987.133 Safari/537.36
p2334
asV_id
p2335
VrqtwNyQDLAEJfAhxv
p2336
sVbonusPayment
p2337
F1.5
sVbonusMessage
p2338
VThank you for you participation. This bonus combines your earnings from Section 1 and Section 2, and, if this was your first time, the quiz and survey were worth 0.40 together.  You are welcome to repeat this experiment a number of times as you see more assignments come up.
p2339
sa(dp2340
Vstatus
p2341
Vcompleted
p2342
sVexitdata
p2343
(dp2344
Vfeedback
p2345
VNo bugs. Great hit!
p2346
ssVsubmitTime
p2347
g9
(S'\x07\xe1\x04\r\x029\x1a\x0b\x94\xd8'
p2348
tp2349
Rp2350
sVinstances
p2351
(lp2352
(dp2353
VleaveTime
p2354
g9
(S'\x07\xe1\x04\r\x0288\ra\xc8'
p2355
tp2356
Rp2357
sVjoinTime
p2358
g9
(S'\x07\xe1\x04\r\x021(\r\x98x'
p2359
tp2360
Rp2361
sVid
p2362
V8Dvfn6pXQZ7DAagBR
p2363
sasVassignmentId
p2364
V37Z929RLG98G6W5T66YYJDVTQ5PST7
p2365
sVworkerId
p2366
VAK467M5VTG7N4
p2367
sVipAddr
p2368
(lp2369
V172.17.0.4
p2370
asVbonusPaid
p2371
g9
(S'\x07\xe1\x04\r\x11\x1f(\x08\x02\xc8'
p2372
tp2373
Rp2374
sVbatchId
p2375
VdpmhLMSeHeJP8wGdo
p2376
sVacceptTime
p2377
g9
(S'\x07\xe1\x04\r\x02)3\x01S\xd8'
p2378
tp2379
Rp2380
sVmturkStatus
p2381
VApproved
p2382
sVhitId
p2383
V37OPIVELUU3JE7UAZAQGVB2IHMIAHX
p2384
sVuserAgent
p2385
(lp2386
VMozilla/5.0 (Windows NT 10.0; WOW64) AppleWebKit/537.36 (KHTML, like Gecko) Chrome/57.0.2987.133 Safari/537.36
p2387
asV_id
p2388
VmzZrEEmtHXoaxbCZM
p2389
sVbonusPayment
p2390
F2.2
sVbonusMessage
p2391
VThank you for you participation. This bonus combines your earnings from Section 1 and Section 2, and, if this was your first time, the quiz and survey were worth 0.40 together.  You are welcome to repeat this experiment a number of times as you see more assignments come up.
p2392
sa(dp2393
Vstatus
p2394
Vcompleted
p2395
sVexitdata
p2396
(dp2397
Vfeedback
p2398
g736
ssVsubmitTime
p2399
g9
(S'\x07\xe1\x04\r\x029(\n\x8b8'
p2400
tp2401
Rp2402
sVinstances
p2403
(lp2404
(dp2405
VleaveTime
p2406
g9
(S'\x07\xe1\x04\r\x029\x0c\t\x8dP'
p2407
tp2408
Rp2409
sVjoinTime
p2410
g9
(S'\x07\xe1\x04\r\x021&\x04:\x08'
p2411
tp2412
Rp2413
sVid
p2414
Vibtg9x5AZaMWXF4Kb
p2415
sasVassignmentId
p2416
V3CFVK00FWLLN0LZRQKT4WHPKE36L6B
p2417
sVworkerId
p2418
VA255A9FFZD8PQW
p2419
sVipAddr
p2420
(lp2421
V172.17.0.4
p2422
asVbonusPaid
p2423
g9
(S'\x07\xe1\x04\r\x100$\x05\xd8\x18'
p2424
tp2425
Rp2426
sVbatchId
p2427
VdpmhLMSeHeJP8wGdo
p2428
sVacceptTime
p2429
g9
(S'\x07\xe1\x04\r\x02)3\x04\x9f\x98'
p2430
tp2431
Rp2432
sVmturkStatus
p2433
VApproved
p2434
sVhitId
p2435
V37OPIVELUU3JE7UAZAQGVB2IHMIAHX
p2436
sVuserAgent
p2437
(lp2438
VMozilla/5.0 (Windows NT 10.0; Win64; x64) AppleWebKit/537.36 (KHTML, like Gecko) Chrome/57.0.2987.133 Safari/537.36
p2439
asV_id
p2440
VoWQX3jHP7RyAidS3H
p2441
sVbonusPayment
p2442
F1.9
sVbonusMessage
p2443
VAccording to my side, you may have been dealing with lag or some other problem.  I think I found the issue, but if you have any other information, it will be very helpful in preventing others from facing the same problem.  In the meantime, one of your outcomes couldn't be calculated, so I am paying you the maximum of 0.30 cents for it. you made 8 points in section 1 and 7 in section 2.  
p2444
sa(dp2445
Vstatus
p2446
Vassigned
p2447
sVassignmentId
p2448
V386CSBG1OZMYRIF4IP10D3OEO9TQ65
p2449
sVworkerId
p2450
VADCZGJUI64U9X
p2451
sVipAddr
p2452
(lp2453
V172.17.0.4
p2454
asVbatchId
p2455
VdpmhLMSeHeJP8wGdo
p2456
sVacceptTime
p2457
g9
(S'\x07\xe1\x04\r\x02)4\x07C`'
p2458
tp2459
Rp2460
sVhitId
p2461
V3GVPRXWRPHU1R07WYPWHLW17GRR7IW
p2462
sVuserAgent
p2463
(lp2464
VMozilla/5.0 (X11; Linux x86_64) AppleWebKit/537.36 (KHTML, like Gecko) Chrome/57.0.2987.98 Safari/537.36
p2465
asV_id
p2466
VRKwnk3Aftry64MfSq
p2467
sa(dp2468
Vstatus
p2469
Vassigned
p2470
sVassignmentId
p2471
V3LJ7UR74RHDZ9YYYJ9G4CB9VN70N4U
p2472
sVworkerId
p2473
VA1UHNDB2EQ8TK0
p2474
sVipAddr
p2475
(lp2476
V172.17.0.4
p2477
asVbatchId
p2478
VdpmhLMSeHeJP8wGdo
p2479
sVacceptTime
p2480
g9
(S'\x07\xe1\x04\r\x02)4\x0b}h'
p2481
tp2482
Rp2483
sVhitId
p2484
V3GVPRXWRPHU1R07WYPWHLW17GRR7IW
p2485
sVuserAgent
p2486
(lp2487
VMozilla/5.0 (Windows NT 10.0; Win64; x64) AppleWebKit/537.36 (KHTML, like Gecko) Chrome/57.0.2987.133 Safari/537.36
p2488
asV_id
p2489
VAfygkszrwRgAWh2me
p2490
sa(dp2491
Vstatus
p2492
Vreturned
p2493
sVassignmentId
p2494
V31UV0MXWNQCPRGR70YMMCVJS141I5E
p2495
sVworkerId
p2496
VA3G8NSPRF986WP
p2497
sVipAddr
p2498
(lp2499
V172.17.0.4
p2500
asVbatchId
p2501
VdpmhLMSeHeJP8wGdo
p2502
sVacceptTime
p2503
g9
(S'\x07\xe1\x04\r\x02)5\x07\xfe\xe0'
p2504
tp2505
Rp2506
sVhitId
p2507
V3GS542CVJVNTTV0A62B7AJO86V959W
p2508
sVuserAgent
p2509
(lp2510
VMozilla/5.0 (Windows NT 6.1) AppleWebKit/537.36 (KHTML, like Gecko) Chrome/57.0.2987.133 Safari/537.36
p2511
asV_id
p2512
VtYWqhmMKQDTfwn6N4
p2513
sVbonusPayment
p2514
I0
sa(dp2515
Vstatus
p2516
Vcompleted
p2517
sVexitdata
p2518
(dp2519
Vfeedback
p2520
g736
ssVsubmitTime
p2521
g9
(S'\x07\xe1\x04\r\x02:\x1b\t\xf6\xc8'
p2522
tp2523
Rp2524
sVinstances
p2525
(lp2526
(dp2527
VleaveTime
p2528
g9
(S'\x07\xe1\x04\r\x02:\x16\x01\xc9\x08'
p2529
tp2530
Rp2531
sVjoinTime
p2532
g9
(S'\x07\xe1\x04\r\x02-\x1f\rJX'
p2533
tp2534
Rp2535
sVid
p2536
V6Ki9sfHD7xLd98eLj
p2537
sasVassignmentId
p2538
V3UOUJI6MTDE32Q6H0LUVNHYNOYYXUB
p2539
sVworkerId
p2540
VA3N0QZ9ZKUCTCQ
p2541
sVipAddr
p2542
(lp2543
V172.17.0.4
p2544
asVbonusPaid
p2545
g9
(S'\x07\xe1\x04\r\x11\x1f)\x034P'
p2546
tp2547
Rp2548
sVbatchId
p2549
VdpmhLMSeHeJP8wGdo
p2550
sVacceptTime
p2551
g9
(S'\x07\xe1\x04\r\x02)6\x00\x1bX'
p2552
tp2553
Rp2554
sVmturkStatus
p2555
VApproved
p2556
sVhitId
p2557
V3XQ4XW3OD9CJZDDMXP90T7QME972S3
p2558
sVuserAgent
p2559
(lp2560
VMozilla/5.0 (Windows NT 10.0; WOW64) AppleWebKit/537.36 (KHTML, like Gecko) Chrome/57.0.2987.133 Safari/537.36
p2561
asV_id
p2562
VR4s5bYFH7hPH2AR7c
p2563
sVbonusPayment
p2564
F1.2000000000000002
sVbonusMessage
p2565
VThank you for you participation. This bonus combines your earnings from Section 1 and Section 2, and, if this was your first time, the quiz and survey were worth 0.40 together.  You are welcome to repeat this experiment a number of times as you see more assignments come up.
p2566
sa(dp2567
Vstatus
p2568
Vassigned
p2569
sVassignmentId
p2570
V3F1567XTNW5L91H2GW4CXDFGEA1Q9G
p2571
sVworkerId
p2572
VA3JDT3L41Z09YL
p2573
sVipAddr
p2574
(lp2575
V172.17.0.4
p2576
asVbatchId
p2577
VdpmhLMSeHeJP8wGdo
p2578
sVacceptTime
p2579
g9
(S'\x07\xe1\x04\r\x02)8\x06\x06\xf8'
p2580
tp2581
Rp2582
sVhitId
p2583
V3GVPRXWRPHU1R07WYPWHLW17GRR7IW
p2584
sVuserAgent
p2585
(lp2586
VMozilla/5.0 (Windows NT 6.1; WOW64) AppleWebKit/537.36 (KHTML, like Gecko) Chrome/53.0.2785.116 Safari/537.36
p2587
asV_id
p2588
VoNS4PMkG893tHNoCS
p2589
sVbonusPayment
p2590
I0
sa(dp2591
Vstatus
p2592
Vcompleted
p2593
sVexitdata
p2594
(dp2595
Vfeedback
p2596
g736
ssVsubmitTime
p2597
g9
(S'\x07\xe1\x04\r\x02;\x1e\x0b\xcb\x88'
p2598
tp2599
Rp2600
sVinstances
p2601
(lp2602
(dp2603
VleaveTime
p2604
g9
(S'\x07\xe1\x04\r\x02;\x05\t\xc0\x18'
p2605
tp2606
Rp2607
sVjoinTime
p2608
g9
(S'\x07\xe1\x04\r\x025\x0b\x0e\xcd\x10'
p2609
tp2610
Rp2611
sVid
p2612
VEdsvbxtKH4p74tCCk
p2613
sasVassignmentId
p2614
V3X87C8JFV6B3EGD1P243E8K66YQSQT
p2615
sVworkerId
p2616
VATIUQQLY0LCNA
p2617
sVipAddr
p2618
(lp2619
V172.17.0.4
p2620
asVbonusPaid
p2621
g9
(S'\x07\xe1\x04\r\x11\x1f)\x077\xa8'
p2622
tp2623
Rp2624
sVbatchId
p2625
VdpmhLMSeHeJP8wGdo
p2626
sVacceptTime
p2627
g9
(S'\x07\xe1\x04\r\x02)9\x0c)H'
p2628
tp2629
Rp2630
sVmturkStatus
p2631
VApproved
p2632
sVhitId
p2633
V3GS542CVJVNTTV0A62B7AJO86V959W
p2634
sVuserAgent
p2635
(lp2636
VMozilla/5.0 (Windows NT 6.1; WOW64) AppleWebKit/537.36 (KHTML, like Gecko) Chrome/57.0.2987.133 Safari/537.36
p2637
asV_id
p2638
VEYbCxukbWaGTdDPKQ
p2639
sVbonusPayment
p2640
F1.2999999999999998
sVbonusMessage
p2641
VThank you for you participation. This bonus combines your earnings from Section 1 and Section 2, and, if this was your first time, the quiz and survey were worth 0.40 together.  You are welcome to repeat this experiment a number of times as you see more assignments come up.
p2642
sa(dp2643
Vstatus
p2644
Vcompleted
p2645
sVexitdata
p2646
(dp2647
Vfeedback
p2648
g736
ssVsubmitTime
p2649
g9
(S'\x07\xe1\x04\r\x03\x0b\n\x01<h'
p2650
tp2651
Rp2652
sVinstances
p2653
(lp2654
(dp2655
VleaveTime
p2656
g9
(S'\x07\xe1\x04\r\x03\x0b\x00\t}\xb0'
p2657
tp2658
Rp2659
sVjoinTime
p2660
g9
(S'\x07\xe1\x04\r\x03\x00\t\x03\x8a@'
p2661
tp2662
Rp2663
sVid
p2664
VxoJJy5GQC6rB5mabE
p2665
sasVassignmentId
p2666
V3RU7GD8VPOTIE4CMPPPEE3UW124SP2
p2667
sVworkerId
p2668
VA2MD4K1YFYBLZN
p2669
sVipAddr
p2670
(lp2671
V172.17.0.4
p2672
asVbonusPaid
p2673
g9
(S'\x07\xe1\x04\r\x11\x1f,\x04"\x98'
p2674
tp2675
Rp2676
sVbatchId
p2677
VdpmhLMSeHeJP8wGdo
p2678
sVacceptTime
p2679
g9
(S'\x07\xe1\x04\r\x02)9\x0e\xd0\xf8'
p2680
tp2681
Rp2682
sVmturkStatus
p2683
VApproved
p2684
sVhitId
p2685
V37OPIVELUU3JE7UAZAQGVB2IHMIAHX
p2686
sVuserAgent
p2687
(lp2688
VMozilla/5.0 (Windows NT 10.0; WOW64; rv:52.0) Gecko/20100101 Firefox/52.0
p2689
asV_id
p2690
VQnzefkTYqBqHzEvTi
p2691
sVbonusPayment
p2692
F1.8
sVbonusMessage
p2693
VThank you for you participation. This bonus combines your earnings from Section 1 and Section 2, and, if this was your first time, the quiz and survey were worth 0.40 together.  You are welcome to repeat this experiment a number of times as you see more assignments come up.
p2694
sa(dp2695
Vstatus
p2696
Vassigned
p2697
sVassignmentId
p2698
V3B837J3LDOW3QHS12HT3JYUB2KSSRU
p2699
sVworkerId
p2700
VA2NF2OA358F8KM
p2701
sVipAddr
p2702
(lp2703
V172.17.0.4
p2704
asVbatchId
p2705
VdpmhLMSeHeJP8wGdo
p2706
sVacceptTime
p2707
g9
(S'\x07\xe1\x04\r\x02*\x01\x0f\x03\xc0'
p2708
tp2709
Rp2710
sVhitId
p2711
V3YLPJ8OXX8D1Y8E8VDYBLU4CD254X9
p2712
sVuserAgent
p2713
(lp2714
VMozilla/5.0 (X11; Linux x86_64) AppleWebKit/537.36 (KHTML, like Gecko) Ubuntu Chromium/57.0.2987.98 Chrome/57.0.2987.98 Safari/537.36
p2715
asV_id
p2716
V5AA5otRZH64AdmEuu
p2717
sa(dp2718
Vstatus
p2719
Vcompleted
p2720
sVexitdata
p2721
(dp2722
Vfeedback
p2723
g736
ssVsubmitTime
p2724
g9
(S'\x07\xe1\x04\r\x0202\x05G\x90'
p2725
tp2726
Rp2727
sVinstances
p2728
(lp2729
(dp2730
VleaveTime
p2731
g9
(S'\x07\xe1\x04\r\x020&\x01O\xf0'
p2732
tp2733
Rp2734
sVjoinTime
p2735
g9
(S'\x07\xe1\x04\r\x02-\x06\x0c\x8a\xf0'
p2736
tp2737
Rp2738
sVid
p2739
V9f8wfThwRtkZPdq9e
p2740
sasVassignmentId
p2741
V3JNQLM5FT4MZIKGQ3IH16488YY4L2U
p2742
sVworkerId
p2743
VAYQJO08F8EAB9
p2744
sVipAddr
p2745
(lp2746
V172.17.0.4
p2747
asVbonusPaid
p2748
g9
(S'\x07\xe1\x04\r\x103\x14\x00y\x18'
p2749
tp2750
Rp2751
sVbatchId
p2752
VdpmhLMSeHeJP8wGdo
p2753
sVacceptTime
p2754
g9
(S'\x07\xe1\x04\r\x02*\x02\x01~\xd0'
p2755
tp2756
Rp2757
sVmturkStatus
p2758
VApproved
p2759
sVhitId
p2760
V3GS542CVJVNTTV0A62B7AJO86V959W
p2761
sVuserAgent
p2762
(lp2763
VMozilla/5.0 (Windows NT 10.0; WOW64) AppleWebKit/537.36 (KHTML, like Gecko) Chrome/57.0.2987.133 Safari/537.36
p2764
asV_id
p2765
V7nn4Myt57m7i2PHcB
p2766
sVbonusPayment
p2767
F1.9
sVbonusMessage
p2768
VAccording to my logs, you may have been dealing with lag or some other problem.  I think I found the issue, but if you have any other information, it will be very helpful in preventing others from facing the same problem.  In the meantime, one of your outcomes couldn't be calculated, so I am paying you the maximum of 0.30 cents for it. you made 6 points in section 1 and 9 in section 2.  
p2769
sa(dp2770
Vstatus
p2771
Vcompleted
p2772
sVexitdata
p2773
(dp2774
Vfeedback
p2775
g736
ssVsubmitTime
p2776
g9
(S'\x07\xe1\x04\x0e\x014\x0c\x077\xa8'
p2777
tp2778
Rp2779
sVinstances
p2780
(lp2781
(dp2782
VleaveTime
p2783
g9
(S'\x07\xe1\x04\x0e\x0139\x05\xdf\xe8'
p2784
tp2785
Rp2786
sVjoinTime
p2787
g9
(S'\x07\xe1\x04\x0e\x01-7\x00]\xc0'
p2788
tp2789
Rp2790
sVid
p2791
VrcacdqtM4epX3QX5Z
p2792
sasVassignmentId
p2793
V3Y4W8Q93LZKPHZQ0EB3OPWXEMNVVDW
p2794
sVworkerId
p2795
VAO4241SMFJ95K
p2796
sVipAddr
p2797
(lp2798
V172.17.0.4
p2799
asVbonusPaid
p2800
g9
(S'\x07\xe1\x04\x10\x150-\nT\x88'
p2801
tp2802
Rp2803
sVbatchId
p2804
VdpmhLMSeHeJP8wGdo
p2805
sVacceptTime
p2806
g9
(S'\x07\xe1\x04\r\x02*\x03\x04\xda0'
p2807
tp2808
Rp2809
sVmturkStatus
p2810
VApproved
p2811
sVhitId
p2812
V3GS542CVJVNTTV0A62B7AJO86V959W
p2813
sVuserAgent
p2814
(lp2815
VMozilla/5.0 (Windows NT 10.0; WOW64) AppleWebKit/537.36 (KHTML, like Gecko) Chrome/57.0.2987.133 Safari/537.36
p2816
asV_id
p2817
VYYKTW4HcNTYBCoAo4
p2818
sVbonusPayment
p2819
I1
sVbonusMessage
p2820
VThank you for you participation. This bonus combines your earnings from Section 1 and Section 2, and, if this was your first time, the quiz and survey were worth 0.40 together.  You are welcome to repeat this experiment a number of times as you see more assignments come up.
p2821
sa(dp2822
Vstatus
p2823
Vcompleted
p2824
sVexitdata
p2825
(dp2826
Vfeedback
p2827
VEverything is fine
p2828
ssVsubmitTime
p2829
g9
(S'\x07\xe1\x04\r\x020)\rR('
p2830
tp2831
Rp2832
sVinstances
p2833
(lp2834
(dp2835
VleaveTime
p2836
g9
(S'\x07\xe1\x04\r\x020\x1c\n`@'
p2837
tp2838
Rp2839
sVjoinTime
p2840
g9
(S'\x07\xe1\x04\r\x02-\x0c\x034P'
p2841
tp2842
Rp2843
sVid
p2844
V8P3rudwksAAW82kF6
p2845
sasVassignmentId
p2846
V3X1FV8S5JXRSTJ0RG14WVH0BZFBVG6
p2847
sVworkerId
p2848
VA2A0M30DSA7ZN
p2849
sVipAddr
p2850
(lp2851
V172.17.0.4
p2852
asVbonusPaid
p2853
g9
(S'\x07\xe1\x04\r\x11\x01\x18\x00qH'
p2854
tp2855
Rp2856
sVbatchId
p2857
VdpmhLMSeHeJP8wGdo
p2858
sVacceptTime
p2859
g9
(S'\x07\xe1\x04\r\x02*\x04\x07jp'
p2860
tp2861
Rp2862
sVmturkStatus
p2863
VApproved
p2864
sVhitId
p2865
V37OPIVELUU3JE7UAZAQGVB2IHMIAHX
p2866
sVuserAgent
p2867
(lp2868
VMozilla/5.0 (Windows NT 10.0; Win64; x64) AppleWebKit/537.36 (KHTML, like Gecko) Chrome/57.0.2987.133 Safari/537.36
p2869
asV_id
p2870
VjfzzrxwKwmrj3Y9YG
p2871
sVbonusPayment
p2872
F0.7
sVbonusMessage
p2873
V2 points in Section 1 and 5 in Section 2.
p2874
sa(dp2875
Vstatus
p2876
Vcompleted
p2877
sVexitdata
p2878
(dp2879
Vfeedback
p2880
VThank you
p2881
ssVsubmitTime
p2882
g9
(S'\x07\xe1\x04\r\x024\x02\x0e[\xc8'
p2883
tp2884
Rp2885
sVinstances
p2886
(lp2887
(dp2888
VleaveTime
p2889
g9
(S'\x07\xe1\x04\r\x023&\x02\x84\x88'
p2890
tp2891
Rp2892
sVjoinTime
p2893
g9
(S'\x07\xe1\x04\r\x02/\x07\x00\xeeH'
p2894
tp2895
Rp2896
sVid
p2897
Voozr4ixqcYybTQxrh
p2898
sasVassignmentId
p2899
V34T446B1C0EZJ6J6BIKOKXP67R70CA
p2900
sVworkerId
p2901
VA3PRZRK9IC5CBI
p2902
sVipAddr
p2903
(lp2904
V172.17.0.4
p2905
asVbonusPaid
p2906
g9
(S"\x07\xe1\x04\r\x11\x1f'\r\x9c`"
p2907
tp2908
Rp2909
sVbatchId
p2910
VdpmhLMSeHeJP8wGdo
p2911
sVacceptTime
p2912
g9
(S'\x07\xe1\x04\r\x02*\x05\x03\x01\x88'
p2913
tp2914
Rp2915
sVmturkStatus
p2916
VApproved
p2917
sVhitId
p2918
V3YLPJ8OXX8D1Y8E8VDYBLU4CD254X9
p2919
sVuserAgent
p2920
(lp2921
VMozilla/5.0 (Windows NT 10.0; Win64; x64) AppleWebKit/537.36 (KHTML, like Gecko) Chrome/57.0.2987.133 Safari/537.36
p2922
asV_id
p2923
VGmZfx2e8wTfW2opQ2
p2924
sVbonusPayment
p2925
F1.6
sVbonusMessage
p2926
VThank you for you participation. This bonus combines your earnings from Section 1 and Section 2, and, if this was your first time, the quiz and survey were worth 0.40 together.  You are welcome to repeat this experiment a number of times as you see more assignments come up.
p2927
sa(dp2928
Vstatus
p2929
Vcompleted
p2930
sVexitdata
p2931
(dp2932
Vfeedback
p2933
g736
ssVsubmitTime
p2934
g9
(S'\x07\xe1\x04\r\x029,\x04\xd2`'
p2935
tp2936
Rp2937
sVinstances
p2938
(lp2939
(dp2940
VleaveTime
p2941
g9
(S'\x07\xe1\x04\r\x029\x15\r\xa40'
p2942
tp2943
Rp2944
sVjoinTime
p2945
g9
(S'\x07\xe1\x04\r\x023\x00\r\xd3\x10'
p2946
tp2947
Rp2948
sVid
p2949
VKYagqc38hEw2xdvtd
p2950
sasVassignmentId
p2951
V3E47SOBEYQWAQ10MF89UQ1P2TLNICM
p2952
sVworkerId
p2953
VA25AX0DNHKJCQT
p2954
sVipAddr
p2955
(lp2956
V172.17.0.4
p2957
asVbonusPaid
p2958
g9
(S'\x07\xe1\x04\r\x11\x1f(\x0bJ\xa0'
p2959
tp2960
Rp2961
sVbatchId
p2962
VdpmhLMSeHeJP8wGdo
p2963
sVacceptTime
p2964
g9
(S'\x07\xe1\x04\r\x02*\t\x04M\x90'
p2965
tp2966
Rp2967
sVmturkStatus
p2968
VApproved
p2969
sVhitId
p2970
V3XQ4XW3OD9CJZDDMXP90T7QME972S3
p2971
sVuserAgent
p2972
(lp2973
VMozilla/5.0 (Windows NT 10.0; WOW64) AppleWebKit/537.36 (KHTML, like Gecko) Chrome/57.0.2987.133 Safari/537.36
p2974
asV_id
p2975
VRXF3hK8EkvpBGEDZ4
p2976
sVbonusPayment
p2977
I2
sVbonusMessage
p2978
VThank you for you participation. This bonus combines your earnings from Section 1 and Section 2, and, if this was your first time, the quiz and survey were worth 0.40 together.  You are welcome to repeat this experiment a number of times as you see more assignments come up.
p2979
sa(dp2980
Vstatus
p2981
Vcompleted
p2982
sVexitdata
p2983
(dp2984
Vfeedback
p2985
g736
ssVsubmitTime
p2986
g9
(S'\x07\xe1\x04\r\x03\t\x0e\x0co\x98'
p2987
tp2988
Rp2989
sVinstances
p2990
(lp2991
(dp2992
VleaveTime
p2993
g9
(S'\x07\xe1\x04\r\x03\x08;\ruP'
p2994
tp2995
Rp2996
sVjoinTime
p2997
g9
(S'\x07\xe1\x04\r\x0249\x07\xf3('
p2998
tp2999
Rp3000
sVid
p3001
VXaM4mSxRKHnyc2CXr
p3002
sasVassignmentId
p3003
V3QHK8ZVMIMIT6XGMMBAC7XBCS4HLBW
p3004
sVworkerId
p3005
VA3NHJPE6326P9V
p3006
sVipAddr
p3007
(lp3008
V172.17.0.4
p3009
asVbonusPaid
p3010
g9
(S'\x07\xe1\x04\r\x10.\x1d\x07b\xa0'
p3011
tp3012
Rp3013
sVbatchId
p3014
VdpmhLMSeHeJP8wGdo
p3015
sVacceptTime
p3016
g9
(S'\x07\xe1\x04\r\x02*\n\x08\xca\x00'
p3017
tp3018
Rp3019
sVmturkStatus
p3020
VApproved
p3021
sVhitId
p3022
V37OPIVELUU3JE7UAZAQGVB2IHMIAHX
p3023
sVuserAgent
p3024
(lp3025
VMozilla/5.0 (Windows NT 10.0; WOW64; rv:52.0) Gecko/20100101 Firefox/52.0
p3026
asV_id
p3027
Vxu7PtGykZkapzm2K6
p3028
sVbonusPayment
p3029
F1.8
sVbonusMessage
p3030
VAccording to my side, you may have been dealing with lag or some other problem.  I think I found the issue, but if you have any other information, it will be very helpful in preventing others from facing the same problem.  In the meantime, one of your outcomes couldn't be calculated, so I am paying you the maximum of 0.30 cents for it. you made 7 points in both sections.
p3031
sa(dp3032
Vstatus
p3033
Vcompleted
p3034
sVexitdata
p3035
(dp3036
Vfeedback
p3037
g736
ssVsubmitTime
p3038
g9
(S'\x07\xe1\x04\r\x027*\x05\t\x10'
p3039
tp3040
Rp3041
sVinstances
p3042
(lp3043
(dp3044
VleaveTime
p3045
g9
(S'\x07\xe1\x04\r\x027$\x06\xc6`'
p3046
tp3047
Rp3048
sVjoinTime
p3049
g9
(S'\x07\xe1\x04\r\x022"\x0b^('
p3050
tp3051
Rp3052
sVid
p3053
VGJBFtk5PbaYfQbwzr
p3054
sasVassignmentId
p3055
V392CY0QWG1R7VXN7MT3C73DE186I49
p3056
sVworkerId
p3057
VA3KX8PBHVFQZ3U
p3058
sVipAddr
p3059
(lp3060
V172.17.0.4
p3061
asVbonusPaid
p3062
g9
(S'\x07\xe1\x04\r\x11\x1f(\x05zX'
p3063
tp3064
Rp3065
sVbatchId
p3066
VdpmhLMSeHeJP8wGdo
p3067
sVacceptTime
p3068
g9
(S'\x07\xe1\x04\r\x02*\x0b\x02\x88p'
p3069
tp3070
Rp3071
sVmturkStatus
p3072
VApproved
p3073
sVhitId
p3074
V3GS542CVJVNTTV0A62B7AJO86V959W
p3075
sVuserAgent
p3076
(lp3077
VMozilla/5.0 (Windows NT 10.0; Win64; x64) AppleWebKit/537.36 (KHTML, like Gecko) Chrome/57.0.2987.133 Safari/537.36
p3078
asV_id
p3079
Vr6SqCxLfeTG36Ni5K
p3080
sVbonusPayment
p3081
F2.2
sVbonusMessage
p3082
VThank you for you participation. This bonus combines your earnings from Section 1 and Section 2, and, if this was your first time, the quiz and survey were worth 0.40 together.  You are welcome to repeat this experiment a number of times as you see more assignments come up.
p3083
sa(dp3084
Vstatus
p3085
Vcompleted
p3086
sVexitdata
p3087
(dp3088
Vfeedback
p3089
VIt was interesting, thanks!
p3090
ssVsubmitTime
p3091
g9
(S'\x07\xe1\x04\r\x027\x02\x05\xeb\xa0'
p3092
tp3093
Rp3094
sVinstances
p3095
(lp3096
(dp3097
VleaveTime
p3098
g9
(S"\x07\xe1\x04\r\x026'\tq\xf8"
p3099
tp3100
Rp3101
sVjoinTime
p3102
g9
(S'\x07\xe1\x04\r\x020)\x02Q\xc0'
p3103
tp3104
Rp3105
sVid
p3106
Vm6HosYnmAQByYbJrF
p3107
sasVassignmentId
p3108
V3WLEIWSYHOHXWOX0CX23ECF1HHW2H5
p3109
sVworkerId
p3110
VAADDOP3FHMAV1
p3111
sVipAddr
p3112
(lp3113
V172.17.0.4
p3114
asVbonusPaid
p3115
g9
(S'\x07\xe1\x04\r\x1078\x03_H'
p3116
tp3117
Rp3118
sVbatchId
p3119
VdpmhLMSeHeJP8wGdo
p3120
sVacceptTime
p3121
g9
(S'\x07\xe1\x04\r\x02*\x0c\x08\xc6\x18'
p3122
tp3123
Rp3124
sVmturkStatus
p3125
VApproved
p3126
sVhitId
p3127
V3GVPRXWRPHU1R07WYPWHLW17GRR7IW
p3128
sVuserAgent
p3129
(lp3130
VMozilla/5.0 (Windows NT 6.1; WOW64) AppleWebKit/537.36 (KHTML, like Gecko) Chrome/57.0.2987.133 Safari/537.36
p3131
asV_id
p3132
VR5kQuNq5SyhBy3NqK
p3133
sVbonusPayment
p3134
F1.4
sVbonusMessage
p3135
VYou earned 6 points in section 1 and 4 in section 2.  I see that you performed the HIT twice.  This was the first, and I am processing the second.  I bring it up because my logs indicate that something went wrong one of the times. Would it be right to say that things were smooth for one run and laggy for the other.  Are there any other problems you encountered? Thank you for your input: it will go a long way toward helping me give everyone a great experience.
p3136
sa(dp3137
Vstatus
p3138
Vassigned
p3139
sVassignmentId
p3140
V33IZTU6J811NNDEDBGZV8GGZ31DSXQ
p3141
sVworkerId
p3142
VA1PUHCEBSOWETV
p3143
sVipAddr
p3144
(lp3145
V172.17.0.4
p3146
asVbatchId
p3147
VdpmhLMSeHeJP8wGdo
p3148
sVacceptTime
p3149
g9
(S'\x07\xe1\x04\r\x02*\x12\x03\xb58'
p3150
tp3151
Rp3152
sVhitId
p3153
V3XQ4XW3OD9CJZDDMXP90T7QME972S3
p3154
sVuserAgent
p3155
(lp3156
VMozilla/5.0 (Windows NT 10.0; Win64; x64) AppleWebKit/537.36 (KHTML, like Gecko) Chrome/57.0.2987.133 Safari/537.36
p3157
asV_id
p3158
VDuDG8H6WuFdkm6agC
p3159
sVbonusPayment
p3160
I0
sa(dp3161
Vstatus
p3162
Vcompleted
p3163
sVexitdata
p3164
(dp3165
Vfeedback
p3166
g736
ssVsubmitTime
p3167
g9
(S'\x07\xe1\x04\r\x03\x02\x13\x0e\x15x'
p3168
tp3169
Rp3170
sVinstances
p3171
(lp3172
(dp3173
VleaveTime
p3174
g9
(S'\x07\xe1\x04\r\x03\x02\x00\x02eH'
p3175
tp3176
Rp3177
sVjoinTime
p3178
g9
(S'\x07\xe1\x04\r\x025\x1c\x0b\xd3X'
p3179
tp3180
Rp3181
sVid
p3182
VeTK22RvoDAKddTx4B
p3183
sasVassignmentId
p3184
V3TU5ZICBRD1LVWYSB4YYXHK5U4JQ8R
p3185
sVworkerId
p3186
VAGHLR9UNHB6ZR
p3187
sVipAddr
p3188
(lp3189
V172.17.0.4
p3190
asVbonusPaid
p3191
g9
(S'\x07\xe1\x04\r\x11\x1f*\x08t\x10'
p3192
tp3193
Rp3194
sVbatchId
p3195
VdpmhLMSeHeJP8wGdo
p3196
sVacceptTime
p3197
g9
(S'\x07\xe1\x04\r\x02*\x14\x00y\x18'
p3198
tp3199
Rp3200
sVmturkStatus
p3201
VApproved
p3202
sVhitId
p3203
V3YLPJ8OXX8D1Y8E8VDYBLU4CD254X9
p3204
sVuserAgent
p3205
(lp3206
VMozilla/5.0 (Macintosh; Intel Mac OS X 10_11_6) AppleWebKit/537.36 (KHTML, like Gecko) Chrome/56.0.2924.87 Safari/537.36
p3207
asV_id
p3208
VJy72HWuaD3zp4HPK4
p3209
sVbonusPayment
p3210
F1.8
sVbonusMessage
p3211
VThank you for you participation. This bonus combines your earnings from Section 1 and Section 2, and, if this was your first time, the quiz and survey were worth 0.40 together.  You are welcome to repeat this experiment a number of times as you see more assignments come up.
p3212
sa(dp3213
Vstatus
p3214
Vcompleted
p3215
sVexitdata
p3216
(dp3217
Vfeedback
p3218
Vthis was fun! 
p3219
ssVsubmitTime
p3220
g9
(S'\x07\xe1\x04\r\x03\x03-\x08\xcd\xe8'
p3221
tp3222
Rp3223
sVinstances
p3224
(lp3225
(dp3226
VleaveTime
p3227
g9
(S'\x07\xe1\x04\r\x03\x03\x1f\x0ck\xb0'
p3228
tp3229
Rp3230
sVjoinTime
p3231
g9
(S'\x07\xe1\x04\r\x025:\x00y\x18'
p3232
tp3233
Rp3234
sVid
p3235
V7aP5yLPEhi9bXFAcX
p3236
sasVassignmentId
p3237
V3IOEN3P9S7JAAEVNXABLC2G6GX216M
p3238
sVworkerId
p3239
VAY9ZVK32I1P1L
p3240
sVipAddr
p3241
(lp3242
V172.17.0.4
p3243
asVbonusPaid
p3244
g9
(S'\x07\xe1\x04\r\x11\x1f+\x05\x82('
p3245
tp3246
Rp3247
sVbatchId
p3248
VdpmhLMSeHeJP8wGdo
p3249
sVacceptTime
p3250
g9
(S"\x07\xe1\x04\r\x02*-\x0b'x"
p3251
tp3252
Rp3253
sVmturkStatus
p3254
VApproved
p3255
sVhitId
p3256
V37OPIVELUU3JE7UAZAQGVB2IHMIAHX
p3257
sVuserAgent
p3258
(lp3259
VMozilla/5.0 (Windows NT 10.0; Win64; x64) AppleWebKit/537.36 (KHTML, like Gecko) Chrome/57.0.2987.133 Safari/537.36
p3260
asV_id
p3261
VrcSBqMDtQ3DhRruXS
p3262
sVbonusPayment
p3263
F2.1
sVbonusMessage
p3264
VThank you for you participation. This bonus combines your earnings from Section 1 and Section 2, and, if this was your first time, the quiz and survey were worth 0.40 together.  You are welcome to repeat this experiment a number of times as you see more assignments come up.
p3265
sa(dp3266
Vstatus
p3267
Vcompleted
p3268
sVexitdata
p3269
(dp3270
Vfeedback
p3271
g736
ssVsubmitTime
p3272
g9
(S'\x07\xe1\x04\r\x02/\x0b\x07\xd7\xd0'
p3273
tp3274
Rp3275
sVinstances
p3276
(lp3277
(dp3278
VleaveTime
p3279
g9
(S'\x07\xe1\x04\r\x02/\x03\x0e~\xf0'
p3280
tp3281
Rp3282
sVjoinTime
p3283
g9
(S'\x07\xe1\x04\r\x02,\x18\x01\xe4`'
p3284
tp3285
Rp3286
sVid
p3287
VJAqdpBdazeEwR3bCr
p3288
sVdisconnectedTime
p3289
I19825
sasVassignmentId
p3290
V30LSNF239UVXSJ8KIFKOEOGGHUAI2D
p3291
sVworkerId
p3292
VA15FXHC1CVNW31
p3293
sVipAddr
p3294
(lp3295
V172.17.0.4
p3296
asVbonusPaid
p3297
g9
(S"\x07\xe1\x04\r\x11\x1f'\x08\xca\x00"
p3298
tp3299
Rp3300
sVbatchId
p3301
VdpmhLMSeHeJP8wGdo
p3302
sVacceptTime
p3303
g9
(S'\x07\xe1\x04\r\x02,\x10\x0c{P'
p3304
tp3305
Rp3306
sVmturkStatus
p3307
VApproved
p3308
sVhitId
p3309
V37OPIVELUU3JE7UAZAQGVB2IHMIAHX
p3310
sVuserAgent
p3311
(lp3312
VMozilla/5.0 (Windows NT 6.1; WOW64) AppleWebKit/537.36 (KHTML, like Gecko) Chrome/57.0.2987.133 Safari/537.36
p3313
asV_id
p3314
VugBvtMcAYTYBbACBe
p3315
sVbonusPayment
p3316
F1.1
sVbonusMessage
p3317
VThank you for you participation. This bonus combines your earnings from Section 1 and Section 2, and, if this was your first time, the quiz and survey were worth 0.40 together.  You are welcome to repeat this experiment a number of times as you see more assignments come up.
p3318
sa(dp3319
Vstatus
p3320
Vcompleted
p3321
sVexitdata
p3322
(dp3323
Vfeedback
p3324
g736
ssVsubmitTime
p3325
g9
(S'\x07\xe1\x04\r\x03\x02&\r\xd3\x10'
p3326
tp3327
Rp3328
sVinstances
p3329
(lp3330
(dp3331
VleaveTime
p3332
g9
(S'\x07\xe1\x04\r\x03\x02\x0e\x07\x08\xc8'
p3333
tp3334
Rp3335
sVjoinTime
p3336
g9
(S'\x07\xe1\x04\r\x026\x1e\n\xae`'
p3337
tp3338
Rp3339
sVid
p3340
VehC66gBfJq6WTiAoK
p3341
sasVassignmentId
p3342
V3IFS6Q0HJIJQXIPICUZU56TKFO9SIQ
p3343
sVworkerId
p3344
VAK3H5QRAROFGP
p3345
sVipAddr
p3346
(lp3347
V172.17.0.4
p3348
asVbonusPaid
p3349
g9
(S'\x07\xe1\x04\r\x11\x1f*\x0b\xe2\xf8'
p3350
tp3351
Rp3352
sVbatchId
p3353
VdpmhLMSeHeJP8wGdo
p3354
sVacceptTime
p3355
g9
(S'\x07\xe1\x04\r\x02.\x14\x0f\x0fx'
p3356
tp3357
Rp3358
sVmturkStatus
p3359
VApproved
p3360
sVhitId
p3361
V3YLPJ8OXX8D1Y8E8VDYBLU4CD254X9
p3362
sVuserAgent
p3363
(lp3364
VMozilla/5.0 (Windows NT 10.0; WOW64) AppleWebKit/537.36 (KHTML, like Gecko) Chrome/57.0.2987.133 Safari/537.36
p3365
asV_id
p3366
VS3z2s6QN5mqw5cn23
p3367
sVbonusPayment
p3368
F2.1
sVbonusMessage
p3369
VThank you for you participation. This bonus combines your earnings from Section 1 and Section 2, and, if this was your first time, the quiz and survey were worth 0.40 together.  You are welcome to repeat this experiment a number of times as you see more assignments come up.
p3370
sa(dp3371
Vstatus
p3372
Vcompleted
p3373
sVexitdata
p3374
(dp3375
Vfeedback
p3376
Vn/a
p3377
ssVsubmitTime
p3378
g9
(S'\x07\xe1\x04\r\x03\x19\x10\x0bN\x88'
p3379
tp3380
Rp3381
sVinstances
p3382
(lp3383
(dp3384
VleaveTime
p3385
g9
(S'\x07\xe1\x04\r\x03\x19\x06\ri\x98'
p3386
tp3387
Rp3388
sVjoinTime
p3389
g9
(S'\x07\xe1\x04\r\x03\x11\x16\x01H '
p3390
tp3391
Rp3392
sVid
p3393
VpS89p55ZEu5J6R9Md
p3394
sasVassignmentId
p3395
V3E4GGUZ1T8ROYEY8II50R4VT9Y02K9
p3396
sVworkerId
p3397
VA22DP0ST9DWG9O
p3398
sVipAddr
p3399
(lp3400
V172.17.0.4
p3401
asVbonusPaid
p3402
g9
(S'\x07\xe1\x04\r\x11\x1f,\t\xcf\xb8'
p3403
tp3404
Rp3405
sVbatchId
p3406
VdpmhLMSeHeJP8wGdo
p3407
sVacceptTime
p3408
g9
(S'\x07\xe1\x04\r\x02/\n\x07\x85\xc8'
p3409
tp3410
Rp3411
sVmturkStatus
p3412
VApproved
p3413
sVhitId
p3414
V3XQ4XW3OD9CJZDDMXP90T7QME972S3
p3415
sVuserAgent
p3416
(lp3417
VMozilla/5.0 (Windows NT 6.1; WOW64; rv:50.0) Gecko/20100101 Firefox/50.0
p3418
asV_id
p3419
VeTF75YEx4ii6s2FJQ
p3420
sVbonusPayment
p3421
I2
sVbonusMessage
p3422
VThank you for you participation. This bonus combines your earnings from Section 1 and Section 2, and, if this was your first time, the quiz and survey were worth 0.40 together.  You are welcome to repeat this experiment a number of times as you see more assignments come up.
p3423
sa(dp3424
Vstatus
p3425
Vcompleted
p3426
sVexitdata
p3427
(dp3428
Vfeedback
p3429
g736
ssVsubmitTime
p3430
g9
(S'\x07\xe1\x04\r\x03\x07\x17\x04\xe5\xe8'
p3431
tp3432
Rp3433
sVinstances
p3434
(lp3435
(dp3436
VleaveTime
p3437
g9
(S'\x07\xe1\x04\r\x03\x07\x12\x08\xa2\xf0'
p3438
tp3439
Rp3440
sVjoinTime
p3441
g9
(S'\x07\xe1\x04\r\x021\x04\x04\x84@'
p3442
tp3443
Rp3444
sVid
p3445
VNuEPqWthzdrSn5BSr
p3446
sasVassignmentId
p3447
V3RWE2M8QWHAIAAGX08T208JI6VKN0E
p3448
sVworkerId
p3449
VA2A0M30DSA7ZN
p3450
sVipAddr
p3451
(lp3452
V172.17.0.4
p3453
asVbonusPaid
p3454
g9
(S'\x07\xe1\x04\r\x11\x03\x14\x08\xb6x'
p3455
tp3456
Rp3457
sVbatchId
p3458
VdpmhLMSeHeJP8wGdo
p3459
sVacceptTime
p3460
g9
(S'\x07\xe1\x04\r\x0208\tR\xb8'
p3461
tp3462
Rp3463
sVmturkStatus
p3464
VApproved
p3465
sVhitId
p3466
V3XQ4XW3OD9CJZDDMXP90T7QME972S3
p3467
sVuserAgent
p3468
(lp3469
VMozilla/5.0 (Windows NT 10.0; Win64; x64) AppleWebKit/537.36 (KHTML, like Gecko) Chrome/57.0.2987.133 Safari/537.36
p3470
asV_id
p3471
VjbnHfJPHsap9XKauQ
p3472
sVbonusPayment
p3473
F1.05
sVbonusMessage
p3474
VHi, thank you for your helpful correspondence.  You earned 4 points in section 1 and 1 in section 2.  However, my system missed a payoff in section one, so I'll be adding the maximum of 0.30 for that.  I will also add 0.25 for your help and helpfulness.
p3475
sa(dp3476
Vstatus
p3477
Vcompleted
p3478
sVexitdata
p3479
(dp3480
Vfeedback
p3481
VVery slow and choppy throughout.
p3482
ssVsubmitTime
p3483
g9
(S"\x07\xe1\x04\r\x028'\x05~@"
p3484
tp3485
Rp3486
sVinstances
p3487
(lp3488
(dp3489
VleaveTime
p3490
g9
(S'\x07\xe1\x04\r\x028\x1e\x0c\x7f8'
p3491
tp3492
Rp3493
sVjoinTime
p3494
g9
(S'\x07\xe1\x04\r\x025\x06\n\x06h'
p3495
tp3496
Rp3497
sVid
p3498
VMR4xq6eaY4p4ZfstT
p3499
sasVassignmentId
p3500
V31UV0MXWNQCPRGR70YMMCVJS141I5E
p3501
sVworkerId
p3502
VA2DWQF4ZHHBLOW
p3503
sVipAddr
p3504
(lp3505
V172.17.0.4
p3506
asVbonusPaid
p3507
g9
(S'\x07\xe1\x04\r\x10(\x0b\x0e\xff\xd8'
p3508
tp3509
Rp3510
sVbatchId
p3511
VdpmhLMSeHeJP8wGdo
p3512
sVacceptTime
p3513
g9
(S'\x07\xe1\x04\r\x021\x04\x0e\r\xa8'
p3514
tp3515
Rp3516
sVmturkStatus
p3517
VApproved
p3518
sVhitId
p3519
V3GS542CVJVNTTV0A62B7AJO86V959W
p3520
sVuserAgent
p3521
(lp3522
VMozilla/5.0 (Macintosh; Intel Mac OS X 10_12_3) AppleWebKit/537.36 (KHTML, like Gecko) Chrome/57.0.2987.133 Safari/537.36
p3523
asV_id
p3524
VEmMZmWeFFDPwgxREA
p3525
sVbonusPayment
p3526
F2.1
sVbonusMessage
p3527
V2.10. Thank you for informing me that you were dealing with lag.  I think I found the issue, but if you have any other information, it will be very helpful in preventing others from facing the same problem.  In the meantime, one of your outcomes couldn't be calculated, so I am paying you the maximum of 0.30 cents. you made 9 in section 1 and 8 in section 2.  
p3528
sa(dp3529
Vstatus
p3530
Vcompleted
p3531
sVexitdata
p3532
(dp3533
Vfeedback
p3534
Vno problems
p3535
ssVsubmitTime
p3536
g9
(S'\x07\xe1\x04\r\x03\x0e!\x0b\xbf\xd0'
p3537
tp3538
Rp3539
sVinstances
p3540
(lp3541
(dp3542
VleaveTime
p3543
g9
(S'\x07\xe1\x04\r\x03\x0e\x02\x0e\x9e0'
p3544
tp3545
Rp3546
sVjoinTime
p3547
g9
(S'\x07\xe1\x04\r\x03\x06\x0b\t\x9c\xf0'
p3548
tp3549
Rp3550
sVid
p3551
VhmqEcxhssaeCCbWMr
p3552
sasVassignmentId
p3553
V3QAPZX2QN4DMLOR4EPVI8KGKV0U021
p3554
sVworkerId
p3555
VA2R8IV2PWFTY00
p3556
sVipAddr
p3557
(lp3558
V172.17.0.4
p3559
asVbonusPaid
p3560
g9
(S'\x07\xe1\x04\r\x11\x1f,\x06\xf1X'
p3561
tp3562
Rp3563
sVbatchId
p3564
VdpmhLMSeHeJP8wGdo
p3565
sVacceptTime
p3566
g9
(S'\x07\xe1\x04\r\x021\x1e\x05\xa5P'
p3567
tp3568
Rp3569
sVmturkStatus
p3570
VApproved
p3571
sVhitId
p3572
V3GVPRXWRPHU1R07WYPWHLW17GRR7IW
p3573
sVuserAgent
p3574
(lp3575
VMozilla/5.0 (Windows NT 10.0) AppleWebKit/537.36 (KHTML, like Gecko) Chrome/57.0.2987.133 Safari/537.36
p3576
asV_id
p3577
VGCd2J37qDLnYyCzuR
p3578
sVbonusPayment
p3579
F1.6
sVbonusMessage
p3580
VThank you for you participation. This bonus combines your earnings from Section 1 and Section 2, and, if this was your first time, the quiz and survey were worth 0.40 together.  You are welcome to repeat this experiment a number of times as you see more assignments come up.
p3581
sa(dp3582
Vstatus
p3583
Vcompleted
p3584
sVexitdata
p3585
(dp3586
Vfeedback
p3587
g736
ssVsubmitTime
p3588
g9
(S'\x07\xe1\x04\r\x03\x01\x07\x07\x89\xb0'
p3589
tp3590
Rp3591
sVinstances
p3592
(lp3593
(dp3594
VleaveTime
p3595
g9
(S'\x07\xe1\x04\r\x03\x006\x01\xe8H'
p3596
tp3597
Rp3598
sVjoinTime
p3599
g9
(S'\x07\xe1\x04\r\x0287\x0c<\xd0'
p3600
tp3601
Rp3602
sVid
p3603
VxKxYurkDZEewjmoqG
p3604
sasVassignmentId
p3605
V3E1QT0TDFP98EYA9YWTPOFTJ3U2I8G
p3606
sVworkerId
p3607
VA1OBWGLS5LRLT3
p3608
sVipAddr
p3609
(lp3610
V172.17.0.4
p3611
asVbonusPaid
p3612
g9
(S'\x07\xe1\x04\r\x11\x1f)\x0bN\x88'
p3613
tp3614
Rp3615
sVbatchId
p3616
VdpmhLMSeHeJP8wGdo
p3617
sVacceptTime
p3618
g9
(S'\x07\xe1\x04\r\x025\x04\r\xcf('
p3619
tp3620
Rp3621
sVmturkStatus
p3622
VApproved
p3623
sVhitId
p3624
V3XQ4XW3OD9CJZDDMXP90T7QME972S3
p3625
sVuserAgent
p3626
(lp3627
VMozilla/5.0 (X11; Linux x86_64) AppleWebKit/537.36 (KHTML, like Gecko) Chrome/56.0.2924.87 Safari/537.36
p3628
asV_id
p3629
VLhaJeqmuo2B32P8GW
p3630
sVbonusPayment
p3631
F1.5
sVbonusMessage
p3632
VThank you for you participation. This bonus combines your earnings from Section 1 and Section 2, and, if this was your first time, the quiz and survey were worth 0.40 together.  You are welcome to repeat this experiment a number of times as you see more assignments come up.
p3633
sa(dp3634
Vstatus
p3635
Vcompleted
p3636
sVexitdata
p3637
(dp3638
Vfeedback
p3639
g736
ssVsubmitTime
p3640
g9
(S'\x07\xe1\x04\r\x03\x0b\x05\x0c\x96\xa8'
p3641
tp3642
Rp3643
sVinstances
p3644
(lp3645
(dp3646
VleaveTime
p3647
g9
(S'\x07\xe1\x04\r\x03\x0b\x04\x00\xe2\x90'
p3648
tp3649
Rp3650
sVjoinTime
p3651
g9
(S'\x07\xe1\x04\r\x02;8\x0c\xdc\xf8'
p3652
tp3653
Rp3654
sVid
p3655
VjEr7xbB8qNBPGsPtJ
p3656
sasVassignmentId
p3657
V3W2LOLRXLBF52YFTX8K1SC31LQFKR5
p3658
sVworkerId
p3659
VA3N0QZ9ZKUCTCQ
p3660
sVipAddr
p3661
(lp3662
V172.17.0.4
p3663
asVbonusPaid
p3664
g9
(S'\x07\xe1\x04\r\x11\x1f,\x00\xfd\xe8'
p3665
tp3666
Rp3667
sVbatchId
p3668
VdpmhLMSeHeJP8wGdo
p3669
sVacceptTime
p3670
g9
(S'\x07\xe1\x04\r\x02:\x1f\x03\x18\xf8'
p3671
tp3672
Rp3673
sVmturkStatus
p3674
VApproved
p3675
sVhitId
p3676
V3YLPJ8OXX8D1Y8E8VDYBLU4CD254X9
p3677
sVuserAgent
p3678
(lp3679
VMozilla/5.0 (Windows NT 10.0; WOW64) AppleWebKit/537.36 (KHTML, like Gecko) Chrome/57.0.2987.133 Safari/537.36
p3680
asV_id
p3681
VB5LApBpnagt8BcTSX
p3682
sVbonusPayment
p3683
F1.5000000000000002
sVbonusMessage
p3684
VThank you for you participation. This bonus combines your earnings from Section 1 and Section 2, and, if this was your first time, the quiz and survey were worth 0.40 together.  You are welcome to repeat this experiment a number of times as you see more assignments come up.
p3685
sa(dp3686
Vstatus
p3687
Vcompleted
p3688
sVexitdata
p3689
(dp3690
Vfeedback
p3691
Vnone
p3692
ssVsubmitTime
p3693
g9
(S'\x07\xe1\x04\r\x03\x12\x12\nw\xb0'
p3694
tp3695
Rp3696
sVinstances
p3697
(lp3698
(dp3699
VleaveTime
p3700
g9
(S'\x07\xe1\x04\r\x03\x11 \ra\xc8'
p3701
tp3702
Rp3703
sVjoinTime
p3704
g9
(S'\x07\xe1\x04\r\x03\t\x18\x04\x1e\xb0'
p3705
tp3706
Rp3707
sVid
p3708
VvumrK89KRbAZAko4E
p3709
sasVassignmentId
p3710
V3X3OR7WPZZ0A4ZIFJZQ2GVLBKYXL8Y
p3711
sVworkerId
p3712
VA2A27TLFWKDXUW
p3713
sVipAddr
p3714
(lp3715
V172.17.0.4
p3716
asVbonusPaid
p3717
g9
(S'\x07\xe1\x04\r\x10$\x12\rB\x88'
p3718
tp3719
Rp3720
sVbatchId
p3721
VdpmhLMSeHeJP8wGdo
p3722
sVacceptTime
p3723
g9
(S'\x07\xe1\x04\r\x03\x01/\x06Q0'
p3724
tp3725
Rp3726
sVmturkStatus
p3727
VApproved
p3728
sVhitId
p3729
V3GVPRXWRPHU1R07WYPWHLW17GRR7IW
p3730
sVuserAgent
p3731
(lp3732
VMozilla/5.0 (Windows NT 10.0; WOW64; rv:52.0) Gecko/20100101 Firefox/52.0
p3733
asV_id
p3734
VMjmSLq4CP73kKxGaK
p3735
sVbonusPayment
p3736
F1.9
sVbonusMessage
p3737
V1.90: .40 for the quiz, 0.9 for section 1, 0.6 for section two.  You should know that I found errors on my side.  Did you have any problems?  Perhaps with lag?  Any information will greatly help me in preventing others from facing similar problems.  Thank you very much for your help.
p3738
sa(dp3739
Vstatus
p3740
Vcompleted
p3741
sVexitdata
p3742
(dp3743
Vfeedback
p3744
g736
ssVsubmitTime
p3745
g9
(S'\x07\xe1\x04\r\x03\x07"\x07+\xf0'
p3746
tp3747
Rp3748
sVinstances
p3749
(lp3750
(dp3751
VleaveTime
p3752
g9
(S'\x07\xe1\x04\r\x03\x07\x1e\x0e\x11\x90'
p3753
tp3754
Rp3755
sVjoinTime
p3756
g9
(S'\x07\xe1\x04\r\x03\x04\x1e\x0c\x19\xa8'
p3757
tp3758
Rp3759
sVid
p3760
Vk3EyMwADcdSnpBAiv
p3761
sasVassignmentId
p3762
V3FFJ6VRIL1OQW9563SGAV0N1KWR0IC
p3763
sVworkerId
p3764
VA2O7H7VXLFN6BP
p3765
sVipAddr
p3766
(lp3767
V172.17.0.4
p3768
asVbonusPaid
p3769
g9
(S'\x07\xe1\x04\r\x11\x1f+\x0c\xd9\x10'
p3770
tp3771
Rp3772
sVbatchId
p3773
VdpmhLMSeHeJP8wGdo
p3774
sVacceptTime
p3775
g9
(S'\x07\xe1\x04\r\x03\x04\x19\x04]0'
p3776
tp3777
Rp3778
sVmturkStatus
p3779
VApproved
p3780
sVhitId
p3781
V3YLPJ8OXX8D1Y8E8VDYBLU4CD254X9
p3782
sVuserAgent
p3783
(lp3784
VMozilla/5.0 (Windows NT 6.1; WOW64) AppleWebKit/537.36 (KHTML, like Gecko) Chrome/57.0.2987.133 Safari/537.36
p3785
asV_id
p3786
V6sD5FZEBm8QbP7xjZ
p3787
sVbonusPayment
p3788
F1.6
sVbonusMessage
p3789
VThank you for you participation. This bonus combines your earnings from Section 1 and Section 2, and, if this was your first time, the quiz and survey were worth 0.40 together.  You are welcome to repeat this experiment a number of times as you see more assignments come up.
p3790
sa(dp3791
Vstatus
p3792
Vcompleted
p3793
sVexitdata
p3794
(dp3795
Vfeedback
p3796
g736
ssVsubmitTime
p3797
g9
(S'\x07\xe1\x04\r\x03!)\t+\xa8'
p3798
tp3799
Rp3800
sVinstances
p3801
(lp3802
(dp3803
VleaveTime
p3804
g9
(S"\x07\xe1\x04\r\x03!'\x0c\xa2`"
p3805
tp3806
Rp3807
sVjoinTime
p3808
g9
(S'\x07\xe1\x04\r\x03\x1c\x11\t\x00\xb0'
p3809
tp3810
Rp3811
sVid
p3812
Vvt47pY7Ma9p7F2c8Q
p3813
sasVassignmentId
p3814
V308Q0PEVB8D8S3TJ3OZ3OBOUN0KI95
p3815
sVworkerId
p3816
VA3N0QZ9ZKUCTCQ
p3817
sVipAddr
p3818
(lp3819
V172.17.0.4
p3820
asVbonusPaid
p3821
g9
(S'\x07\xe1\x04\r\x11\x1f,\r+\x18'
p3822
tp3823
Rp3824
sVbatchId
p3825
VdpmhLMSeHeJP8wGdo
p3826
sVacceptTime
p3827
g9
(S'\x07\xe1\x04\r\x03\x0b\x08\n`@'
p3828
tp3829
Rp3830
sVmturkStatus
p3831
VApproved
p3832
sVhitId
p3833
V37OPIVELUU3JE7UAZAQGVB2IHMIAHX
p3834
sVuserAgent
p3835
(lp3836
VMozilla/5.0 (Windows NT 10.0; WOW64) AppleWebKit/537.36 (KHTML, like Gecko) Chrome/57.0.2987.133 Safari/537.36
p3837
asV_id
p3838
VSSppHqqvvwmXebdQZ
p3839
sVbonusPayment
p3840
F1.3000000000000003
sVbonusMessage
p3841
VThank you for you participation. This bonus combines your earnings from Section 1 and Section 2, and, if this was your first time, the quiz and survey were worth 0.40 together.  You are welcome to repeat this experiment a number of times as you see more assignments come up.
p3842
sa(dp3843
Vstatus
p3844
Vcompleted
p3845
sVexitdata
p3846
(dp3847
Vfeedback
p3848
g736
ssVsubmitTime
p3849
g9
(S'\x07\xe1\x04\r\x04& \x03\x11('
p3850
tp3851
Rp3852
sVinstances
p3853
(lp3854
(dp3855
VleaveTime
p3856
g9
(S'\x07\xe1\x04\r\x04&\x02\x04\xaf8'
p3857
tp3858
Rp3859
sVjoinTime
p3860
g9
(S'\x07\xe1\x04\r\x04!\x16\t\x1c\x08'
p3861
tp3862
Rp3863
sVid
p3864
V8AvTxPJS6stSFtB7G
p3865
sasVassignmentId
p3866
V3JWH6J9I9SDJUXJ7YOQRKPF1XZPNB8
p3867
sVworkerId
p3868
VAW0MG225VXWCN
p3869
sVipAddr
p3870
(lp3871
V172.17.0.4
p3872
asVbonusPaid
p3873
g9
(S'\x07\xe1\x04\r\x11\x1f-\x04I\xa8'
p3874
tp3875
Rp3876
sVbatchId
p3877
VdpmhLMSeHeJP8wGdo
p3878
sVacceptTime
p3879
g9
(S'\x07\xe1\x04\r\x04\x1d&\r\xc3p'
p3880
tp3881
Rp3882
sVmturkStatus
p3883
VApproved
p3884
sVhitId
p3885
V3JMNNNO3B14C6UUVHUJ1QWT7LROW28
p3886
sVuserAgent
p3887
(lp3888
VMozilla/5.0 (Windows NT 10.0; Win64; x64) AppleWebKit/537.36 (KHTML, like Gecko) Chrome/57.0.2987.133 Safari/537.36
p3889
asV_id
p3890
VQbpPvNMTajWivhfAM
p3891
sVbonusPayment
p3892
F1.9000000000000001
sVbonusMessage
p3893
VThank you for you participation. This bonus combines your earnings from Section 1 and Section 2, and, if this was your first time, the quiz and survey were worth 0.40 together.  You are welcome to repeat this experiment a number of times as you see more assignments come up.
p3894
sa(dp3895
Vstatus
p3896
Vcompleted
p3897
sVexitdata
p3898
(dp3899
Vfeedback
p3900
VNo confusion or bugs. I'm just confused whether we should try to maximize our personal earnings. I understood from the instruction that I must try to choose that option which is most likely to be preferred by the other player.  \u000a\u000aThe message above mentions I can do this Hit 10 times. I hope you change the title of your Hit/clarify the same, if it is a totally new experiment/game to avoid confusion about this ( 10 times eligibility).
p3901
ssVsubmitTime
p3902
g9
(S'\x07\xe1\x04\r\x05\x03\x19\x0c\x9a\x90'
p3903
tp3904
Rp3905
sVinstances
p3906
(lp3907
(dp3908
VleaveTime
p3909
g9
(S'\x07\xe1\x04\r\x05\x00 \n`@'
p3910
tp3911
Rp3912
sVjoinTime
p3913
g9
(S"\x07\xe1\x04\r\x04,'\x0c)H"
p3914
tp3915
Rp3916
sVid
p3917
VYpdkxxN2x5wxZwgiF
p3918
sasVassignmentId
p3919
V3HWRJOOET52EHDNWGB93KRVSNVASEP
p3920
sVworkerId
p3921
VA2K56J9POYUFCA
p3922
sVipAddr
p3923
(lp3924
V172.17.0.4
p3925
asVbonusPaid
p3926
g9
(S'\x07\xe1\x04\r\x11\x118\t\xd7\x88'
p3927
tp3928
Rp3929
sVbatchId
p3930
VdpmhLMSeHeJP8wGdo
p3931
sVacceptTime
p3932
g9
(S'\x07\xe1\x04\r\x04\x1e\x18\x07\xf3('
p3933
tp3934
Rp3935
sVmturkStatus
p3936
VApproved
p3937
sVhitId
p3938
V3JMNNNO3B14C6UUVHUJ1QWT7LROW28
p3939
sVuserAgent
p3940
(lp3941
VMozilla/5.0 (Macintosh; Intel Mac OS X 10_11_6) AppleWebKit/537.36 (KHTML, like Gecko) Chrome/57.0.2987.133 Safari/537.36
p3942
asV_id
p3943
VmundjQbrzfGJYD53R
p3944
sVbonusPayment
p3945
F1.9
sVbonusMessage
p3946
VHi, thanks for your participation, and your question. You should maximize your earnings.  An important part of doing so is remembering that the other person is also trying to maximize their earnings, and that the outcome you get will be influenced by the other person. I will go back to the instructions to make them more clear.  Thank you for the great feedback.\u000a\u000aYou earned 6 points in Section 1 and 9 in Section 2.
p3947
sa(dp3948
Vstatus
p3949
Vcompleted
p3950
sVexitdata
p3951
(dp3952
Vfeedback
p3953
VIt was fine
p3954
ssVsubmitTime
p3955
g9
(S"\x07\xe1\x04\r\x05'4\x0e\xc5@"
p3956
tp3957
Rp3958
sVinstances
p3959
(lp3960
(dp3961
VleaveTime
p3962
g9
(S"\x07\xe1\x04\r\x05'.\x01\xd4\xc0"
p3963
tp3964
Rp3965
sVjoinTime
p3966
g9
(S'\x07\xe1\x04\r\x05 -\x0f\x1f\x18'
p3967
tp3968
Rp3969
sVid
p3970
Vtq3dQXt4qwGug3x2q
p3971
sasVassignmentId
p3972
V33NF62TLXJ2O4AWGP3BSQLHAB9TJKK
p3973
sVworkerId
p3974
VAADDOP3FHMAV1
p3975
sVipAddr
p3976
(lp3977
V172.17.0.4
p3978
asVbonusPaid
p3979
g9
(S'\x07\xe1\x04\r\x108;\x0e)\x00'
p3980
tp3981
Rp3982
sVbatchId
p3983
VdpmhLMSeHeJP8wGdo
p3984
sVacceptTime
p3985
g9
(S'\x07\xe1\x04\r\x04!8\r6\xd0'
p3986
tp3987
Rp3988
sVmturkStatus
p3989
VApproved
p3990
sVhitId
p3991
V3MVY4USGB6NNAYROMSUSGNX34AWSI7
p3992
sVuserAgent
p3993
(lp3994
VMozilla/5.0 (Windows NT 6.1; WOW64) AppleWebKit/537.36 (KHTML, like Gecko) Chrome/57.0.2987.133 Safari/537.36
p3995
asV_id
p3996
VagBAYyQiaBc8uejoe
p3997
sVbonusPayment
p3998
F1.2
sVbonusMessage
p3999
V6 points in section 1 and 6 in section 2.  Thank you!
p4000
sa(dp4001
Vstatus
p4002
Vcompleted
p4003
sVexitdata
p4004
(dp4005
Vfeedback
p4006
g736
ssVsubmitTime
p4007
g9
(S"\x07\xe1\x04\r\x041\x1f\r'0"
p4008
tp4009
Rp4010
sVinstances
p4011
(lp4012
(dp4013
VleaveTime
p4014
g9
(S'\x07\xe1\x04\r\x041\t\x069\xc0'
p4015
tp4016
Rp4017
sVjoinTime
p4018
g9
(S'\x07\xe1\x04\r\x04*\x01\x03\xc8\xc0'
p4019
tp4020
Rp4021
sVid
p4022
VhpLMRHteQRQTrGhLX
p4023
sasVassignmentId
p4024
V3TPZPLC3M0CEUNR7ZAOD6VMK9ME3PU
p4025
sVworkerId
p4026
VA1U8RH67FLZW87
p4027
sVipAddr
p4028
(lp4029
V172.17.0.4
p4030
asVbonusPaid
p4031
g9
(S'\x07\xe1\x04\r\x11\x1f-\t^p'
p4032
tp4033
Rp4034
sVbatchId
p4035
VdpmhLMSeHeJP8wGdo
p4036
sVacceptTime
p4037
g9
(S'\x07\xe1\x04\r\x04"\n\x01\xfb\xd0'
p4038
tp4039
Rp4040
sVmturkStatus
p4041
VApproved
p4042
sVhitId
p4043
V3MVY4USGB6NNAYROMSUSGNX34AWSI7
p4044
sVuserAgent
p4045
(lp4046
VMozilla/5.0 (Windows NT 10.0; Win64; x64) AppleWebKit/537.36 (KHTML, like Gecko) Chrome/57.0.2987.133 Safari/537.36
p4047
asV_id
p4048
Vt7PiASxcnuNqxn9ZE
p4049
sVbonusPayment
p4050
I2
sVbonusMessage
p4051
VThank you for you participation. This bonus combines your earnings from Section 1 and Section 2, and, if this was your first time, the quiz and survey were worth 0.40 together.  You are welcome to repeat this experiment a number of times as you see more assignments come up.
p4052
sa(dp4053
Vstatus
p4054
Vcompleted
p4055
sVexitdata
p4056
(dp4057
Vfeedback
p4058
Vno problems, thanks!
p4059
ssVsubmitTime
p4060
g9
(S'\x07\xe1\x04\r\x048\x08\x04p\xb8'
p4061
tp4062
Rp4063
sVinstances
p4064
(lp4065
(dp4066
VleaveTime
p4067
g9
(S'\x07\xe1\x04\r\x047\x1a\x02"\xe0'
p4068
tp4069
Rp4070
sVjoinTime
p4071
g9
(S'\x07\xe1\x04\r\x042\x16\n\x19\xf0'
p4072
tp4073
Rp4074
sVid
p4075
VmLjKRJFLnv7k544Kt
p4076
sasVassignmentId
p4077
V37TD41K0AH9ZKF3IKK38U3VP2JYCSH
p4078
sVworkerId
p4079
VA14ADQ7RUN6TDY
p4080
sVipAddr
p4081
(lp4082
V172.17.0.4
p4083
asVbonusPaid
p4084
g9
(S'\x07\xe1\x04\r\x11\x1f.\x03 \xc8'
p4085
tp4086
Rp4087
sVbatchId
p4088
VdpmhLMSeHeJP8wGdo
p4089
sVacceptTime
p4090
g9
(S'\x07\xe1\x04\r\x04*\x1f\x02:P'
p4091
tp4092
Rp4093
sVmturkStatus
p4094
VApproved
p4095
sVhitId
p4096
V3QTFNPMJC6ICPBOTE01SHOQNDP3ZNE
p4097
sVuserAgent
p4098
(lp4099
VMozilla/5.0 (Windows NT 10.0; WOW64; rv:52.0) Gecko/20100101 Firefox/52.0
p4100
asV_id
p4101
VGFMqnKkFn7PFkoNLv
p4102
sVbonusPayment
p4103
F1.6
sVbonusMessage
p4104
VThank you for you participation. This bonus combines your earnings from Section 1 and Section 2, and, if this was your first time, the quiz and survey were worth 0.40 together.  You are welcome to repeat this experiment a number of times as you see more assignments come up.
p4105
sa(dp4106
Vstatus
p4107
Vcompleted
p4108
sVexitdata
p4109
(dp4110
Vfeedback
p4111
g736
ssVsubmitTime
p4112
g9
(S'\x07\xe1\x04\r\x043\x1e\x02\x17('
p4113
tp4114
Rp4115
sVinstances
p4116
(lp4117
(dp4118
VleaveTime
p4119
g9
(S'\x07\xe1\x04\r\x043\x15\x02\xd2\xa8'
p4120
tp4121
Rp4122
sVjoinTime
p4123
g9
(S'\x07\xe1\x04\r\x040(\x0cD\xa0'
p4124
tp4125
Rp4126
sVid
p4127
Vt8dKjqFM9ye9ZzCZy
p4128
sasVassignmentId
p4129
V3TXMY6UCAEON7ZO5SGE3Z3GOKVDCQS
p4130
sVworkerId
p4131
VA110KENBXU7SUJ
p4132
sVipAddr
p4133
(lp4134
V172.17.0.4
p4135
asVbonusPaid
p4136
g9
(S'\x07\xe1\x04\r\x11\x1f-\x0b\xfeP'
p4137
tp4138
Rp4139
sVbatchId
p4140
VdpmhLMSeHeJP8wGdo
p4141
sVacceptTime
p4142
g9
(S'\x07\xe1\x04\r\x04*8\x08\xd1\xd0'
p4143
tp4144
Rp4145
sVmturkStatus
p4146
VApproved
p4147
sVhitId
p4148
V3QTFNPMJC6ICPBOTE01SHOQNDP3ZNE
p4149
sVuserAgent
p4150
(lp4151
VMozilla/5.0 (Windows NT 10.0; Win64; x64) AppleWebKit/537.36 (KHTML, like Gecko) Chrome/57.0.2987.133 Safari/537.36
p4152
asV_id
p4153
VbfSuR5uyDHyWwfBcd
p4154
sVbonusPayment
p4155
F0.9
sVbonusMessage
p4156
VThank you for you participation. This bonus combines your earnings from Section 1 and Section 2, and, if this was your first time, the quiz and survey were worth 0.40 together.  You are welcome to repeat this experiment a number of times as you see more assignments come up.
p4157
sa(dp4158
Vstatus
p4159
Vcompleted
p4160
sVexitdata
p4161
(dp4162
Vfeedback
p4163
g736
ssVsubmitTime
p4164
g9
(S'\x07\xe1\x04\r\x04/\x0b\x00\x1f@'
p4165
tp4166
Rp4167
sVinstances
p4168
(lp4169
(dp4170
VleaveTime
p4171
g9
(S'\x07\xe1\x04\r\x04/\x05\n\xf8\x98'
p4172
tp4173
Rp4174
sVjoinTime
p4175
g9
(S'\x07\xe1\x04\r\x04+4\x08\x9f\x08'
p4176
tp4177
Rp4178
sVid
p4179
Vap4iGm67FLj4dEstj
p4180
sasVassignmentId
p4181
V3WRFBPLXRAOER2FUJVBL26HP97DN3I
p4182
sVworkerId
p4183
VAW0MG225VXWCN
p4184
sVipAddr
p4185
(lp4186
V172.17.0.4
p4187
asVbonusPaid
p4188
g9
(S'\x07\xe1\x04\r\x11\x1f-\x07\x00\xf8'
p4189
tp4190
Rp4191
sVbatchId
p4192
VdpmhLMSeHeJP8wGdo
p4193
sVacceptTime
p4194
g9
(S'\x07\xe1\x04\r\x04+\x17\t\x95 '
p4195
tp4196
Rp4197
sVmturkStatus
p4198
VApproved
p4199
sVhitId
p4200
V3QTFNPMJC6ICPBOTE01SHOQNDP3ZNE
p4201
sVuserAgent
p4202
(lp4203
VMozilla/5.0 (Windows NT 10.0; Win64; x64) AppleWebKit/537.36 (KHTML, like Gecko) Chrome/57.0.2987.133 Safari/537.36
p4204
asV_id
p4205
VgssjqRj7uyKipN9Pf
p4206
sVbonusPayment
p4207
F0.9000000000000001
sVbonusMessage
p4208
VThank you for you participation. This bonus combines your earnings from Section 1 and Section 2, and, if this was your first time, the quiz and survey were worth 0.40 together.  You are welcome to repeat this experiment a number of times as you see more assignments come up.
p4209
sa(dp4210
Vstatus
p4211
Vcompleted
p4212
sVexitdata
p4213
(dp4214
Vfeedback
p4215
g736
ssVsubmitTime
p4216
g9
(S'\x07\xe1\x04\r\x045:\x04h\xe8'
p4217
tp4218
Rp4219
sVinstances
p4220
(lp4221
(dp4222
VleaveTime
p4223
g9
(S'\x07\xe1\x04\r\x045.\x07f\x88'
p4224
tp4225
Rp4226
sVjoinTime
p4227
g9
(S'\x07\xe1\x04\r\x043/\x03\x11('
p4228
tp4229
Rp4230
sVid
p4231
VkcC7yDsmugwQmZWSq
p4232
sasVassignmentId
p4233
V3TVRFO09GKF0J0JNR72UWU24B7ELXE
p4234
sVworkerId
p4235
VAW0MG225VXWCN
p4236
sVipAddr
p4237
(lp4238
V172.17.0.4
p4239
asVbonusPaid
p4240
g9
(S'\x07\xe1\x04\r\x11\x1f-\x0e{\x08'
p4241
tp4242
Rp4243
sVbatchId
p4244
VdpmhLMSeHeJP8wGdo
p4245
sVacceptTime
p4246
g9
(S'\x07\xe1\x04\r\x043*\x08T\xd0'
p4247
tp4248
Rp4249
sVmturkStatus
p4250
VApproved
p4251
sVhitId
p4252
V3KTZHH2ONIFRNX26T9MFRP4J9Q0M8A
p4253
sVuserAgent
p4254
(lp4255
VMozilla/5.0 (Windows NT 10.0; Win64; x64) AppleWebKit/537.36 (KHTML, like Gecko) Chrome/57.0.2987.133 Safari/537.36
p4256
asV_id
p4257
VsrZW5ictjcxRkFqAm
p4258
sVbonusPayment
p4259
F1.7000000000000002
sVbonusMessage
p4260
VThank you for you participation. This bonus combines your earnings from Section 1 and Section 2, and, if this was your first time, the quiz and survey were worth 0.40 together.  You are welcome to repeat this experiment a number of times as you see more assignments come up.
p4261
sa(dp4262
Vstatus
p4263
Vcompleted
p4264
sVexitdata
p4265
(dp4266
Vfeedback
p4267
g736
ssVsubmitTime
p4268
g9
(S'\x07\xe1\x04\r\x05\x0f\x0f\x08\x1e '
p4269
tp4270
Rp4271
sVinstances
p4272
(lp4273
(dp4274
VleaveTime
p4275
g9
(S'\x07\xe1\x04\r\x05\x0e&\r\xa40'
p4276
tp4277
Rp4278
sVjoinTime
p4279
g9
(S'\x07\xe1\x04\r\x05\x01%\x07\xb8\x90'
p4280
tp4281
Rp4282
sVid
p4283
Vauivnp9XxsR8P7C9j
p4284
sasVassignmentId
p4285
V384PI804XS1FQN8284AOZ2TOTU20SD
p4286
sVworkerId
p4287
VAB66CTVQ90RCV
p4288
sVipAddr
p4289
(lp4290
V172.17.0.4
p4291
asVbonusPaid
p4292
g9
(S'\x07\xe1\x04\r\x11\x1f1\x0eP\x10'
p4293
tp4294
Rp4295
sVbatchId
p4296
VdpmhLMSeHeJP8wGdo
p4297
sVacceptTime
p4298
g9
(S'\x07\xe1\x04\r\x045\x02\x03\xeb\xe8'
p4299
tp4300
Rp4301
sVmturkStatus
p4302
VApproved
p4303
sVhitId
p4304
V3KTZHH2ONIFRNX26T9MFRP4J9Q0M8A
p4305
sVuserAgent
p4306
(lp4307
VMozilla/5.0 (Windows NT 10.0; WOW64) AppleWebKit/537.36 (KHTML, like Gecko) Chrome/57.0.2987.133 Safari/537.36
p4308
asV_id
p4309
Vvt5X2FathWQcZYu67
p4310
sVbonusPayment
p4311
F2.2
sVbonusMessage
p4312
VThank you for you participation. This bonus combines your earnings from Section 1 and Section 2, and, if this was your first time, the quiz and survey were worth 0.40 together.  You are welcome to repeat this experiment a number of times as you see more assignments come up.
p4313
sa(dp4314
Vstatus
p4315
Vcompleted
p4316
sVexitdata
p4317
(dp4318
Vfeedback
p4319
g736
ssVsubmitTime
p4320
g9
(S'\x07\xe1\x04\r\x05"$\x077\xa8'
p4321
tp4322
Rp4323
sVinstances
p4324
(lp4325
(dp4326
VleaveTime
p4327
g9
(S'\x07\xe1\x04\r\x05"\x0f\x02\xa3\xc8'
p4328
tp4329
Rp4330
sVjoinTime
p4331
g9
(S'\x07\xe1\x04\r\x05\x1d\t\x06\xba\xa8'
p4332
tp4333
Rp4334
sVid
p4335
V5gP9tXKLWwcDHKYZM
p4336
sasVassignmentId
p4337
V3U088ZLJVKT8X4PBS9KPWRW9Z7XW0N
p4338
sVworkerId
p4339
VA37WXDYYT7RCZ0
p4340
sVipAddr
p4341
(lp4342
V172.17.0.4
p4343
asVbonusPaid
p4344
g9
(S'\x07\xe1\x04\r\x11\x1f5\x07nX'
p4345
tp4346
Rp4347
sVbatchId
p4348
VdpmhLMSeHeJP8wGdo
p4349
sVacceptTime
p4350
g9
(S'\x07\xe1\x04\r\x04;\x08\x06\x06\xf8'
p4351
tp4352
Rp4353
sVmturkStatus
p4354
VApproved
p4355
sVhitId
p4356
V3KTZHH2ONIFRNX26T9MFRP4J9Q0M8A
p4357
sVuserAgent
p4358
(lp4359
VMozilla/5.0 (Windows NT 6.3; WOW64) AppleWebKit/537.36 (KHTML, like Gecko) Chrome/57.0.2987.133 Safari/537.36
p4360
asV_id
p4361
VhM2frwbTdcZzmt6Tx
p4362
sVbonusPayment
p4363
F1.6
sVbonusMessage
p4364
VThank you for you participation. This bonus combines your earnings from Section 1 and Section 2, and, if this was your first time, the quiz and survey were worth 0.40 together.  You are welcome to repeat this experiment a number of times as you see more assignments come up.
p4365
sa(dp4366
Vstatus
p4367
Vcompleted
p4368
sVexitdata
p4369
(dp4370
Vfeedback
p4371
g736
ssVsubmitTime
p4372
g9
(S'\x07\xe1\x04\r\x05\x0b,\x00J8'
p4373
tp4374
Rp4375
sVinstances
p4376
(lp4377
(dp4378
VleaveTime
p4379
g9
(S'\x07\xe1\x04\r\x05\x0b \x00\x07\xd0'
p4380
tp4381
Rp4382
sVjoinTime
p4383
g9
(S'\x07\xe1\x04\r\x05\t\x00\x05\xe7\xb8'
p4384
tp4385
Rp4386
sVid
p4387
VPg825dWTtMZorGfJQ
p4388
sasVassignmentId
p4389
V38SKSKU7R1X3T5USSL2TTKFPNUBLIF
p4390
sVworkerId
p4391
VA49HPQ9P5AHU4
p4392
sVipAddr
p4393
(lp4394
V172.17.0.4
p4395
asVbonusPaid
p4396
g9
(S'\x07\xe1\x04\r\x11\x1f.\x08\x978'
p4397
tp4398
Rp4399
sVbatchId
p4400
VdpmhLMSeHeJP8wGdo
p4401
sVacceptTime
p4402
g9
(S'\x07\xe1\x04\r\x05\x06\x18\x02F\x08'
p4403
tp4404
Rp4405
sVmturkStatus
p4406
VApproved
p4407
sVhitId
p4408
V3SSN80MU8COMCA3BG5LRSBT8BV1KX0
p4409
sVuserAgent
p4410
(lp4411
VMozilla/5.0 (Windows NT 10.0; WOW64) AppleWebKit/537.36 (KHTML, like Gecko) Chrome/57.0.2987.133 Safari/537.36
p4412
asV_id
p4413
VBe8AT24DrtyiGtafG
p4414
sVbonusPayment
p4415
F2.1
sVbonusMessage
p4416
VThank you for you participation. This bonus combines your earnings from Section 1 and Section 2, and, if this was your first time, the quiz and survey were worth 0.40 together.  You are welcome to repeat this experiment a number of times as you see more assignments come up.
p4417
sa(dp4418
Vstatus
p4419
Vcompleted
p4420
sVexitdata
p4421
(dp4422
Vfeedback
p4423
g736
ssVsubmitTime
p4424
g9
(S'\x07\xe1\x04\r\x05\n5\x01\x8a\x88'
p4425
tp4426
Rp4427
sVinstances
p4428
(lp4429
(dp4430
VleaveTime
p4431
g9
(S'\x07\xe1\x04\r\x05\n-\x00\x00\x00'
p4432
tp4433
Rp4434
sVjoinTime
p4435
g9
(S'\x07\xe1\x04\r\x05\x07\x02\x02\xab\x98'
p4436
tp4437
Rp4438
sVid
p4439
VvNkpzBXDDHTFRrgRy
p4440
sasVassignmentId
p4441
V3TY7ZAOG5FKH24VU3V1M8G2EC0PK0G
p4442
sVworkerId
p4443
VA1U8RH67FLZW87
p4444
sVipAddr
p4445
(lp4446
V172.17.0.4
p4447
asVbonusPaid
p4448
g9
(S'\x07\xe1\x04\r\x11\x1f.\x05\xb1\x08'
p4449
tp4450
Rp4451
sVbatchId
p4452
VdpmhLMSeHeJP8wGdo
p4453
sVacceptTime
p4454
g9
(S'\x07\xe1\x04\r\x05\x062\x02M\xd8'
p4455
tp4456
Rp4457
sVmturkStatus
p4458
VApproved
p4459
sVhitId
p4460
V3W1K7D6QSBHAO2ZWBAWJQTQTW1RBZ5
p4461
sVuserAgent
p4462
(lp4463
VMozilla/5.0 (Windows NT 10.0; Win64; x64) AppleWebKit/537.36 (KHTML, like Gecko) Chrome/57.0.2987.133 Safari/537.36
p4464
asV_id
p4465
VY8FvcBbqjrkD6TQ5p
p4466
sVbonusPayment
p4467
F1.8000000000000003
sVbonusMessage
p4468
VThank you for you participation. This bonus combines your earnings from Section 1 and Section 2, and, if this was your first time, the quiz and survey were worth 0.40 together.  You are welcome to repeat this experiment a number of times as you see more assignments come up.
p4469
sa(dp4470
Vstatus
p4471
Vcompleted
p4472
sVexitdata
p4473
(dp4474
Vfeedback
p4475
g736
ssVsubmitTime
p4476
g9
(S'\x07\xe1\x04\r\x05\x0c\x10\x00]\xc0'
p4477
tp4478
Rp4479
sVinstances
p4480
(lp4481
(dp4482
VleaveTime
p4483
g9
(S'\x07\xe1\x04\r\x05\x0c\r\x06\x0e\xc8'
p4484
tp4485
Rp4486
sVjoinTime
p4487
g9
(S'\x07\xe1\x04\r\x05\n\x11\r\x94\x90'
p4488
tp4489
Rp4490
sVid
p4491
Vcx3wYtHXfsLpAFAiG
p4492
sasVassignmentId
p4493
V34Z02EIMISDG5NLHX4FE97PAVDH0T3
p4494
sVworkerId
p4495
VAW0MG225VXWCN
p4496
sVipAddr
p4497
(lp4498
V172.17.0.4
p4499
asVbonusPaid
p4500
g9
(S'\x07\xe1\x04\r\x11\x1f/\x0b\xfah'
p4501
tp4502
Rp4503
sVbatchId
p4504
VdpmhLMSeHeJP8wGdo
p4505
sVacceptTime
p4506
g9
(S'\x07\xe1\x04\r\x05\n\x0b\r6\xd0'
p4507
tp4508
Rp4509
sVmturkStatus
p4510
VApproved
p4511
sVhitId
p4512
V3SSN80MU8COMCA3BG5LRSBT8BV1KX0
p4513
sVuserAgent
p4514
(lp4515
VMozilla/5.0 (Windows NT 10.0; Win64; x64) AppleWebKit/537.36 (KHTML, like Gecko) Chrome/57.0.2987.133 Safari/537.36
p4516
asV_id
p4517
VokKfTTKgww5cP2rcQ
p4518
sVbonusPayment
p4519
F1.6
sVbonusMessage
p4520
VThank you for you participation. This bonus combines your earnings from Section 1 and Section 2, and, if this was your first time, the quiz and survey were worth 0.40 together.  You are welcome to repeat this experiment a number of times as you see more assignments come up.
p4521
sa(dp4522
Vstatus
p4523
Vcompleted
p4524
sVexitdata
p4525
(dp4526
Vfeedback
p4527
g736
ssVsubmitTime
p4528
g9
(S'\x07\xe1\x04\r\x05\r%\x06\x93\x98'
p4529
tp4530
Rp4531
sVinstances
p4532
(lp4533
(dp4534
VleaveTime
p4535
g9
(S'\x07\xe1\x04\r\x05\r#\x0b\xb00'
p4536
tp4537
Rp4538
sVjoinTime
p4539
g9
(S'\x07\xe1\x04\r\x05\x0c\x17\x00\xea`'
p4540
tp4541
Rp4542
sVid
p4543
VdcEMwxPFTHrMQpazs
p4544
sasVassignmentId
p4545
V3WYP994K17R70K6Q9ZIUQPRGNIKY6Q
p4546
sVworkerId
p4547
VAW0MG225VXWCN
p4548
sVipAddr
p4549
(lp4550
V172.17.0.4
p4551
asVbonusPaid
p4552
g9
(S'\x07\xe1\x04\r\x11\x1f1\x01\x11p'
p4553
tp4554
Rp4555
sVbatchId
p4556
VdpmhLMSeHeJP8wGdo
p4557
sVacceptTime
p4558
g9
(S'\x07\xe1\x04\r\x05\x0c\x12\x07\xfa\xf8'
p4559
tp4560
Rp4561
sVmturkStatus
p4562
VApproved
p4563
sVhitId
p4564
V3W1K7D6QSBHAO2ZWBAWJQTQTW1RBZ5
p4565
sVuserAgent
p4566
(lp4567
VMozilla/5.0 (Windows NT 10.0; Win64; x64) AppleWebKit/537.36 (KHTML, like Gecko) Chrome/57.0.2987.133 Safari/537.36
p4568
asV_id
p4569
VbEtKqgducNJm4TB4b
p4570
sVbonusPayment
p4571
F0.7000000000000001
sVbonusMessage
p4572
VThank you for you participation. This bonus combines your earnings from Section 1 and Section 2, and, if this was your first time, the quiz and survey were worth 0.40 together.  You are welcome to repeat this experiment a number of times as you see more assignments come up.
p4573
sa(dp4574
Vstatus
p4575
Vcompleted
p4576
sVexitdata
p4577
(dp4578
Vfeedback
p4579
g736
ssVsubmitTime
p4580
g9
(S'\x07\xe1\x04\r\x05\x1a\x0b\x0e\xb9\x88'
p4581
tp4582
Rp4583
sVinstances
p4584
(lp4585
(dp4586
VleaveTime
p4587
g9
(S'\x07\xe1\x04\r\x05\x1a\x07\n\x0e8'
p4588
tp4589
Rp4590
sVjoinTime
p4591
g9
(S'\x07\xe1\x04\r\x05\x159\x01S\xd8'
p4592
tp4593
Rp4594
sVid
p4595
VCwmSptbMs6qTq4yp4
p4596
sasVassignmentId
p4597
V3AMYWKA6YBMV662O3C9WOYTE98MO66
p4598
sVworkerId
p4599
VA1U8RH67FLZW87
p4600
sVipAddr
p4601
(lp4602
V172.17.0.4
p4603
asVbonusPaid
p4604
g9
(S'\x07\xe1\x04\r\x11\x1f2\x08E0'
p4605
tp4606
Rp4607
sVbatchId
p4608
VdpmhLMSeHeJP8wGdo
p4609
sVacceptTime
p4610
g9
(S'\x07\xe1\x04\r\x05\x15,\t\x04\x98'
p4611
tp4612
Rp4613
sVmturkStatus
p4614
VApproved
p4615
sVhitId
p4616
V3G9UA71JVVUXMBR2G7HHXXG7UDA7JH
p4617
sVuserAgent
p4618
(lp4619
VMozilla/5.0 (Windows NT 10.0; Win64; x64) AppleWebKit/537.36 (KHTML, like Gecko) Chrome/57.0.2987.133 Safari/537.36
p4620
asV_id
p4621
VF4fyQ9atsFbChgjLL
p4622
sVbonusPayment
p4623
F1.0000000000000002
sVbonusMessage
p4624
VThank you for you participation. This bonus combines your earnings from Section 1 and Section 2, and, if this was your first time, the quiz and survey were worth 0.40 together.  You are welcome to repeat this experiment a number of times as you see more assignments come up.
p4625
sa(dp4626
Vstatus
p4627
Vcompleted
p4628
sVexitdata
p4629
(dp4630
Vfeedback
p4631
g736
ssVsubmitTime
p4632
g9
(S'\x07\xe1\x04\r\x05;/\x0c\x06 '
p4633
tp4634
Rp4635
sVinstances
p4636
(lp4637
(dp4638
VleaveTime
p4639
g9
(S'\x07\xe1\x04\r\x05;\t\x0c\x028'
p4640
tp4641
Rp4642
sVjoinTime
p4643
g9
(S'\x07\xe1\x04\r\x053-\r\xea\x80'
p4644
tp4645
Rp4646
sVid
p4647
VYpfruBkScohP67Guc
p4648
sasVassignmentId
p4649
V3VAR3R6G1P1IAKLCWR6U8CP5F3CO8S
p4650
sVworkerId
p4651
VAMZV70TID53WY
p4652
sVipAddr
p4653
(lp4654
V172.17.0.4
p4655
asVbonusPaid
p4656
g9
(S'\x07\xe1\x04\r\x11\x1f;\x08\xf1\x10'
p4657
tp4658
Rp4659
sVbatchId
p4660
VdpmhLMSeHeJP8wGdo
p4661
sVacceptTime
p4662
g9
(S'\x07\xe1\x04\r\x05\x152\x085\x90'
p4663
tp4664
Rp4665
sVmturkStatus
p4666
VApproved
p4667
sVhitId
p4668
V35O6H0UNLSGIZ7DJSE2KZD2B37F5J0
p4669
sVuserAgent
p4670
(lp4671
VMozilla/5.0 (Windows NT 6.1; WOW64) AppleWebKit/537.36 (KHTML, like Gecko) Chrome/56.0.2924.87 Safari/537.36
p4672
asV_id
p4673
VLf5BhZjRgYtmyg2S4
p4674
sVbonusPayment
p4675
F2.2
sVbonusMessage
p4676
VThank you for you participation. This bonus combines your earnings from Section 1 and Section 2, and, if this was your first time, the quiz and survey were worth 0.40 together.  You are welcome to repeat this experiment a number of times as you see more assignments come up.
p4677
sa(dp4678
Vstatus
p4679
Vcompleted
p4680
sVexitdata
p4681
(dp4682
Vfeedback
p4683
g736
ssVsubmitTime
p4684
g9
(S'\x07\xe1\x04\r\x05\x1b\x0f\x08\xae\xa8'
p4685
tp4686
Rp4687
sVinstances
p4688
(lp4689
(dp4690
VleaveTime
p4691
g9
(S'\x07\xe1\x04\r\x05\x1b\x07\x08\xb2\x90'
p4692
tp4693
Rp4694
sVjoinTime
p4695
g9
(S'\x07\xe1\x04\r\x05\x16\x1f\r\xb3\xd0'
p4696
tp4697
Rp4698
sVid
p4699
VZorybB4fHSgSDHLcu
p4700
sasVassignmentId
p4701
V3QBD8R3Z21JHRJYAKOGHR090DHGO4L
p4702
sVworkerId
p4703
VAB66CTVQ90RCV
p4704
sVipAddr
p4705
(lp4706
V172.17.0.4
p4707
asVbonusPaid
p4708
g9
(S'\x07\xe1\x04\r\x11\x1f3\x07f\x88'
p4709
tp4710
Rp4711
sVbatchId
p4712
VdpmhLMSeHeJP8wGdo
p4713
sVacceptTime
p4714
g9
(S'\x07\xe1\x04\r\x05\x16\x0c\x0b\x89 '
p4715
tp4716
Rp4717
sVmturkStatus
p4718
VApproved
p4719
sVhitId
p4720
V3G9UA71JVVUXMBR2G7HHXXG7UDA7JH
p4721
sVuserAgent
p4722
(lp4723
VMozilla/5.0 (Windows NT 10.0; WOW64) AppleWebKit/537.36 (KHTML, like Gecko) Chrome/57.0.2987.133 Safari/537.36
p4724
asV_id
p4725
V9d9JhRXbupmdzcTxj
p4726
sVbonusPayment
p4727
F0.9
sVbonusMessage
p4728
VThank you for you participation. This bonus combines your earnings from Section 1 and Section 2, and, if this was your first time, the quiz and survey were worth 0.40 together.  You are welcome to repeat this experiment a number of times as you see more assignments come up.
p4729
sa(dp4730
Vstatus
p4731
Vcompleted
p4732
sVexitdata
p4733
(dp4734
Vfeedback
p4735
g736
ssVsubmitTime
p4736
g9
(S"\x07\xe1\x04\r\x05\x1b'\x01\r\x88"
p4737
tp4738
Rp4739
sVinstances
p4740
(lp4741
(dp4742
VleaveTime
p4743
g9
(S'\x07\xe1\x04\r\x05\x1b$\nd('
p4744
tp4745
Rp4746
sVjoinTime
p4747
g9
(S'\x07\xe1\x04\r\x05\x1a\x0e\x02\xf9\xb8'
p4748
tp4749
Rp4750
sVid
p4751
VH4QKjXNWjGuTt5xjp
p4752
sasVassignmentId
p4753
V3I3WADAZ9Q4ZN22AYTZRWSFEDDBO5Q
p4754
sVworkerId
p4755
VAW0MG225VXWCN
p4756
sVipAddr
p4757
(lp4758
V172.17.0.4
p4759
asVbonusPaid
p4760
g9
(S'\x07\xe1\x04\r\x11\x1f4\x05\x18\xb0'
p4761
tp4762
Rp4763
sVbatchId
p4764
VdpmhLMSeHeJP8wGdo
p4765
sVacceptTime
p4766
g9
(S'\x07\xe1\x04\r\x05\x1a\n\x006\xb0'
p4767
tp4768
Rp4769
sVmturkStatus
p4770
VApproved
p4771
sVhitId
p4772
V3G9UA71JVVUXMBR2G7HHXXG7UDA7JH
p4773
sVuserAgent
p4774
(lp4775
VMozilla/5.0 (Windows NT 10.0; Win64; x64) AppleWebKit/537.36 (KHTML, like Gecko) Chrome/57.0.2987.133 Safari/537.36
p4776
asV_id
p4777
VqDWPXwvPFAWrHFeRL
p4778
sVbonusPayment
p4779
F1.7000000000000002
sVbonusMessage
p4780
VThank you for you participation. This bonus combines your earnings from Section 1 and Section 2, and, if this was your first time, the quiz and survey were worth 0.40 together.  You are welcome to repeat this experiment a number of times as you see more assignments come up.
p4781
sa(dp4782
Vstatus
p4783
Vcompleted
p4784
sVexitdata
p4785
(dp4786
Vfeedback
p4787
g736
ssVsubmitTime
p4788
g9
(S'\x07\xe1\x04\r\x05$1\x0f6\x88'
p4789
tp4790
Rp4791
sVinstances
p4792
(lp4793
(dp4794
VleaveTime
p4795
g9
(S'\x07\xe1\x04\r\x05$+\x07\x81\xe0'
p4796
tp4797
Rp4798
sVjoinTime
p4799
g9
(S'\x07\xe1\x04\r\x05\x1b \x04t\xa0'
p4800
tp4801
Rp4802
sVid
p4803
VaKNYeG8pyX7pYYkK7
p4804
sasVassignmentId
p4805
V3OCHAWUVGOKPZU1567QTHUPPM7BKXC
p4806
sVworkerId
p4807
VAB66CTVQ90RCV
p4808
sVipAddr
p4809
(lp4810
V172.17.0.4
p4811
asVbonusPaid
p4812
g9
(S'\x07\xe1\x04\r\x11\x1f6\x01\xe8H'
p4813
tp4814
Rp4815
sVbatchId
p4816
VdpmhLMSeHeJP8wGdo
p4817
sVacceptTime
p4818
g9
(S'\x07\xe1\x04\r\x05\x1b\x15\x030h'
p4819
tp4820
Rp4821
sVmturkStatus
p4822
VApproved
p4823
sVhitId
p4824
V35O6H0UNLSGIZ7DJSE2KZD2B37F5J0
p4825
sVuserAgent
p4826
(lp4827
VMozilla/5.0 (Windows NT 10.0; WOW64) AppleWebKit/537.36 (KHTML, like Gecko) Chrome/57.0.2987.133 Safari/537.36
p4828
asV_id
p4829
VttBq9MskbHkBtJhqw
p4830
sVbonusPayment
p4831
F1.5000000000000002
sVbonusMessage
p4832
VThank you for you participation. This bonus combines your earnings from Section 1 and Section 2, and, if this was your first time, the quiz and survey were worth 0.40 together.  You are welcome to repeat this experiment a number of times as you see more assignments come up.
p4833
sa(dp4834
Vstatus
p4835
Vcompleted
p4836
sVexitdata
p4837
(dp4838
Vfeedback
p4839
g736
ssVsubmitTime
p4840
g9
(S'\x07\xe1\x04\r\x05\x1c9\x06\xd6\x00'
p4841
tp4842
Rp4843
sVinstances
p4844
(lp4845
(dp4846
VleaveTime
p4847
g9
(S'\x07\xe1\x04\r\x05\x1c6\x07\x04\xe0'
p4848
tp4849
Rp4850
sVjoinTime
p4851
g9
(S'\x07\xe1\x04\r\x05\x1b-\x02\xfd\xa0'
p4852
tp4853
Rp4854
sVid
p4855
VyDAr8iRyDmoMYoAXr
p4856
sasVassignmentId
p4857
V3TOK3KHVJTIEA6GTMMEOUCTA4J6O75
p4858
sVworkerId
p4859
VAW0MG225VXWCN
p4860
sVipAddr
p4861
(lp4862
V172.17.0.4
p4863
asVbonusPaid
p4864
g9
(S'\x07\xe1\x04\r\x11\x1f4\r\xac\x00'
p4865
tp4866
Rp4867
sVbatchId
p4868
VdpmhLMSeHeJP8wGdo
p4869
sVacceptTime
p4870
g9
(S'\x07\xe1\x04\r\x05\x1b)\x04\xca\x90'
p4871
tp4872
Rp4873
sVmturkStatus
p4874
VApproved
p4875
sVhitId
p4876
V35O6H0UNLSGIZ7DJSE2KZD2B37F5J0
p4877
sVuserAgent
p4878
(lp4879
VMozilla/5.0 (Windows NT 10.0; Win64; x64) AppleWebKit/537.36 (KHTML, like Gecko) Chrome/57.0.2987.133 Safari/537.36
p4880
asV_id
p4881
VSk5rE7SfXSQLDhBuj
p4882
sVbonusPayment
p4883
F1.5000000000000002
sVbonusMessage
p4884
VThank you for you participation. This bonus combines your earnings from Section 1 and Section 2, and, if this was your first time, the quiz and survey were worth 0.40 together.  You are welcome to repeat this experiment a number of times as you see more assignments come up.
p4885
sa(dp4886
Vstatus
p4887
Vcompleted
p4888
sVexitdata
p4889
(dp4890
Vfeedback
p4891
g736
ssVsubmitTime
p4892
g9
(S"\x07\xe1\x04\r\x05%'\x04\xda0"
p4893
tp4894
Rp4895
sVinstances
p4896
(lp4897
(dp4898
VleaveTime
p4899
g9
(S'\x07\xe1\x04\r\x05%\x13\x0b}h'
p4900
tp4901
Rp4902
sVjoinTime
p4903
g9
(S'\x07\xe1\x04\r\x05!\x12\x00\xde\xa8'
p4904
tp4905
Rp4906
sVid
p4907
VcMFiFyL7g735foeRr
p4908
sasVassignmentId
p4909
V3E47SOBEYQWAQ10MF89UQ1P2TLZICY
p4910
sVworkerId
p4911
VA1U8RH67FLZW87
p4912
sVipAddr
p4913
(lp4914
V172.17.0.4
p4915
asVbonusPaid
p4916
g9
(S'\x07\xe1\x04\r\x11\x1f6\r\x0b\xd8'
p4917
tp4918
Rp4919
sVbatchId
p4920
VdpmhLMSeHeJP8wGdo
p4921
sVacceptTime
p4922
g9
(S'\x07\xe1\x04\r\x05!\x08\tR\xb8'
p4923
tp4924
Rp4925
sVmturkStatus
p4926
VApproved
p4927
sVhitId
p4928
V31ODACBENUF0RWF7Z0Z1PPOPVNWSQZ
p4929
sVuserAgent
p4930
(lp4931
VMozilla/5.0 (Windows NT 10.0; Win64; x64) AppleWebKit/537.36 (KHTML, like Gecko) Chrome/57.0.2987.133 Safari/537.36
p4932
asV_id
p4933
VvPhRJt3RWWiQAxfca
p4934
sVbonusPayment
p4935
F1.6
sVbonusMessage
p4936
VThank you for you participation. This bonus combines your earnings from Section 1 and Section 2, and, if this was your first time, the quiz and survey were worth 0.40 together.  You are welcome to repeat this experiment a number of times as you see more assignments come up.
p4937
sa(dp4938
Vstatus
p4939
Vcompleted
p4940
sVexitdata
p4941
(dp4942
Vfeedback
p4943
g736
ssVsubmitTime
p4944
g9
(S'\x07\xe1\x04\r\x05-\x00\x06|('
p4945
tp4946
Rp4947
sVinstances
p4948
(lp4949
(dp4950
VleaveTime
p4951
g9
(S'\x07\xe1\x04\r\x05,0\x05W0'
p4952
tp4953
Rp4954
sVjoinTime
p4955
g9
(S'\x07\xe1\x04\r\x05(:\x05~@'
p4956
tp4957
Rp4958
sVid
p4959
VDGaN6zRdxjiyRtro4
p4960
sasVassignmentId
p4961
V3WETL7AQWT8A1D9OFVFZ8PH3IMG35B
p4962
sVworkerId
p4963
VA1QCQE5XW37LN1
p4964
sVipAddr
p4965
(lp4966
V172.17.0.4
p4967
asVbonusPaid
p4968
g9
(S'\x07\xe1\x04\r\x11\x1f9\x04\xcex'
p4969
tp4970
Rp4971
sVbatchId
p4972
VdpmhLMSeHeJP8wGdo
p4973
sVacceptTime
p4974
g9
(S'\x07\xe1\x04\r\x05!\x1b\x0cH\x88'
p4975
tp4976
Rp4977
sVmturkStatus
p4978
VApproved
p4979
sVhitId
p4980
V32TMVRKDGNYBJ7D0N5MJ5VNJN1884Y
p4981
sVuserAgent
p4982
(lp4983
VMozilla/5.0 (Windows NT 6.1; WOW64) AppleWebKit/537.36 (KHTML, like Gecko) Chrome/57.0.2987.133 Safari/537.36
p4984
asV_id
p4985
Vx726ZkyzXh3LsYL2S
p4986
sVbonusPayment
p4987
F1.8
sVbonusMessage
p4988
VThank you for you participation. This bonus combines your earnings from Section 1 and Section 2, and, if this was your first time, the quiz and survey were worth 0.40 together.  You are welcome to repeat this experiment a number of times as you see more assignments come up.
p4989
sa(dp4990
Vstatus
p4991
Vcompleted
p4992
sVexitdata
p4993
(dp4994
Vfeedback
p4995
g736
ssVsubmitTime
p4996
g9
(S'\x07\xe1\x04\r\x05%0\x04\xa7h'
p4997
tp4998
Rp4999
sVinstances
p5000
(lp5001
(dp5002
VleaveTime
p5003
g9
(S'\x07\xe1\x04\r\x05%,\x06MH'
p5004
tp5005
Rp5006
sVjoinTime
p5007
g9
(S'\x07\xe1\x04\r\x05#,\x0b\xacH'
p5008
tp5009
Rp5010
sVid
p5011
VAqdLPwvEDheJ88otv
p5012
sasVassignmentId
p5013
V3FTOP5WARFOMRKPCLA1A7121XBR0JZ
p5014
sVworkerId
p5015
VAW0MG225VXWCN
p5016
sVipAddr
p5017
(lp5018
V172.17.0.4
p5019
asVbonusPaid
p5020
g9
(S'\x07\xe1\x04\r\x11\x1f7\x05\xb1\x08'
p5021
tp5022
Rp5023
sVbatchId
p5024
VdpmhLMSeHeJP8wGdo
p5025
sVacceptTime
p5026
g9
(S'\x07\xe1\x04\r\x05#&\x07+\xf0'
p5027
tp5028
Rp5029
sVmturkStatus
p5030
VApproved
p5031
sVhitId
p5032
V31ODACBENUF0RWF7Z0Z1PPOPVNWSQZ
p5033
sVuserAgent
p5034
(lp5035
VMozilla/5.0 (Windows NT 10.0; Win64; x64) AppleWebKit/537.36 (KHTML, like Gecko) Chrome/57.0.2987.133 Safari/537.36
p5036
asV_id
p5037
VGRvzpLKCwGrv2jsPi
p5038
sVbonusPayment
p5039
F1.8000000000000003
sVbonusMessage
p5040
VThank you for you participation. This bonus combines your earnings from Section 1 and Section 2, and, if this was your first time, the quiz and survey were worth 0.40 together.  You are welcome to repeat this experiment a number of times as you see more assignments come up.
p5041
sa(dp5042
Vstatus
p5043
Vcompleted
p5044
sVexitdata
p5045
(dp5046
Vfeedback
p5047
g736
ssVsubmitTime
p5048
g9
(S"\x07\xe1\x04\r\x05'\x05\tf@"
p5049
tp5050
Rp5051
sVinstances
p5052
(lp5053
(dp5054
VleaveTime
p5055
g9
(S"\x07\xe1\x04\r\x05'\x02\x0e\xcd\x10"
p5056
tp5057
Rp5058
sVjoinTime
p5059
g9
(S'\x07\xe1\x04\r\x05%6\x03\xcc\xa8'
p5060
tp5061
Rp5062
sVid
p5063
V4wjA88C8MdcbHSbJP
p5064
sasVassignmentId
p5065
V3YHH42UU5BFSMADCOVDNNGFT10W0L1
p5066
sVworkerId
p5067
VAW0MG225VXWCN
p5068
sVipAddr
p5069
(lp5070
V172.17.0.4
p5071
asVbonusPaid
p5072
g9
(S'\x07\xe1\x04\r\x11\x1f8\x01\xc18'
p5073
tp5074
Rp5075
sVbatchId
p5076
VdpmhLMSeHeJP8wGdo
p5077
sVacceptTime
p5078
g9
(S'\x07\xe1\x04\r\x05%2\x0by\x80'
p5079
tp5080
Rp5081
sVmturkStatus
p5082
VApproved
p5083
sVhitId
p5084
V32TMVRKDGNYBJ7D0N5MJ5VNJN1884Y
p5085
sVuserAgent
p5086
(lp5087
VMozilla/5.0 (Windows NT 10.0; Win64; x64) AppleWebKit/537.36 (KHTML, like Gecko) Chrome/57.0.2987.133 Safari/537.36
p5088
asV_id
p5089
VNwd76YagBJbDSxzDS
p5090
sVbonusPayment
p5091
F1.4000000000000001
sVbonusMessage
p5092
VThank you for you participation. This bonus combines your earnings from Section 1 and Section 2, and, if this was your first time, the quiz and survey were worth 0.40 together.  You are welcome to repeat this experiment a number of times as you see more assignments come up.
p5093
sa(dp5094
Vstatus
p5095
Vcompleted
p5096
sVexitdata
p5097
(dp5098
Vfeedback
p5099
g736
ssVsubmitTime
p5100
g9
(S'\x07\xe1\x04\r\x05*\x1e\x06\xfd\x10'
p5101
tp5102
Rp5103
sVinstances
p5104
(lp5105
(dp5106
VleaveTime
p5107
g9
(S'\x07\xe1\x04\r\x05*\x08\x01\x8a\x88'
p5108
tp5109
Rp5110
sVjoinTime
p5111
g9
(S"\x07\xe1\x04\r\x05')\x05\x0c\xf8"
p5112
tp5113
Rp5114
sVid
p5115
V2NaP8JgwkLz2jFGB3
p5116
sasVassignmentId
p5117
V3DI28L7YXAEENTO23SUJOQ8JXV1E1V
p5118
sVworkerId
p5119
VAW0MG225VXWCN
p5120
sVipAddr
p5121
(lp5122
V172.17.0.4
p5123
asVbonusPaid
p5124
g9
(S'\x07\xe1\x04\r\x11\x1f8\tj('
p5125
tp5126
Rp5127
sVbatchId
p5128
VdpmhLMSeHeJP8wGdo
p5129
sVacceptTime
p5130
g9
(S"\x07\xe1\x04\r\x05'\x1f\x0b\xb4\x18"
p5131
tp5132
Rp5133
sVmturkStatus
p5134
VApproved
p5135
sVhitId
p5136
V3BPP3MA3TCKOQGUC6070JMLGKQALEC
p5137
sVuserAgent
p5138
(lp5139
VMozilla/5.0 (Windows NT 10.0; Win64; x64) AppleWebKit/537.36 (KHTML, like Gecko) Chrome/57.0.2987.133 Safari/537.36
p5140
asV_id
p5141
VznNX2K3rjd4YfEEbA
p5142
sVbonusPayment
p5143
F1.2000000000000002
sVbonusMessage
p5144
VThank you for you participation. This bonus combines your earnings from Section 1 and Section 2, and, if this was your first time, the quiz and survey were worth 0.40 together.  You are welcome to repeat this experiment a number of times as you see more assignments come up.
p5145
sa(dp5146
Vstatus
p5147
Vcompleted
p5148
sVexitdata
p5149
(dp5150
Vfeedback
p5151
g736
ssVsubmitTime
p5152
g9
(S'\x07\xe1\x04\r\x058\x15\x08\xf8\xe0'
p5153
tp5154
Rp5155
sVinstances
p5156
(lp5157
(dp5158
VleaveTime
p5159
g9
(S'\x07\xe1\x04\r\x058\x10\x08AH'
p5160
tp5161
Rp5162
sVjoinTime
p5163
g9
(S'\x07\xe1\x04\r\x0512\n\xf4\xb0'
p5164
tp5165
Rp5166
sVid
p5167
VuT7L5pkhCRMo5pqYz
p5168
sasVassignmentId
p5169
V3B837J3LDOW3QHS12HT3JYUB2K4SR6
p5170
sVworkerId
p5171
VA37WXDYYT7RCZ0
p5172
sVipAddr
p5173
(lp5174
V172.17.0.4
p5175
asVbonusPaid
p5176
g9
(S'\x07\xe1\x04\r\x11\x1f:\x06\n\xe0'
p5177
tp5178
Rp5179
sVbatchId
p5180
VdpmhLMSeHeJP8wGdo
p5181
sVacceptTime
p5182
g9
(S'\x07\xe1\x04\r\x05-(\r\x84\xf0'
p5183
tp5184
Rp5185
sVmturkStatus
p5186
VApproved
p5187
sVhitId
p5188
V3BPP3MA3TCKOQGUC6070JMLGKQALEC
p5189
sVuserAgent
p5190
(lp5191
VMozilla/5.0 (Windows NT 6.3; WOW64) AppleWebKit/537.36 (KHTML, like Gecko) Chrome/57.0.2987.133 Safari/537.36
p5192
asV_id
p5193
VkcomigRh4KB9qPqFo
p5194
sVbonusPayment
p5195
F1.4000000000000001
sVbonusMessage
p5196
VThank you for you participation. This bonus combines your earnings from Section 1 and Section 2, and, if this was your first time, the quiz and survey were worth 0.40 together.  You are welcome to repeat this experiment a number of times as you see more assignments come up.
p5197
sa(dp5198
Vstatus
p5199
Vcompleted
p5200
sVexitdata
p5201
(dp5202
Vfeedback
p5203
g736
ssVsubmitTime
p5204
g9
(S'\x07\xe1\x04\r\x059\x04\x07\x81\xe0'
p5205
tp5206
Rp5207
sVinstances
p5208
(lp5209
(dp5210
VleaveTime
p5211
g9
(S'\x07\xe1\x04\r\x0588\x0f\x1b0'
p5212
tp5213
Rp5214
sVjoinTime
p5215
g9
(S'\x07\xe1\x04\r\x05/\x04\x00U\xf0'
p5216
tp5217
Rp5218
sVid
p5219
VWFcj7ft59ZLfB8Cvm
p5220
sasVassignmentId
p5221
V3VA45EW49NN0ZK1RX6XFT22X1X7O19
p5222
sVworkerId
p5223
VAB66CTVQ90RCV
p5224
sVipAddr
p5225
(lp5226
V172.17.0.4
p5227
asVbonusPaid
p5228
g9
(S'\x07\xe1\x04\r\x11\x1f:\x0e%\x18'
p5229
tp5230
Rp5231
sVbatchId
p5232
VdpmhLMSeHeJP8wGdo
p5233
sVacceptTime
p5234
g9
(S'\x07\xe1\x04\r\x05./\x06\xb2\xd8'
p5235
tp5236
Rp5237
sVmturkStatus
p5238
VApproved
p5239
sVhitId
p5240
V3BPP3MA3TCKOQGUC6070JMLGKQALEC
p5241
sVuserAgent
p5242
(lp5243
VMozilla/5.0 (Windows NT 10.0; WOW64) AppleWebKit/537.36 (KHTML, like Gecko) Chrome/57.0.2987.133 Safari/537.36
p5244
asV_id
p5245
VGFTC53sbdyjEsTkCj
p5246
sVbonusPayment
p5247
F1.8000000000000003
sVbonusMessage
p5248
VThank you for you participation. This bonus combines your earnings from Section 1 and Section 2, and, if this was your first time, the quiz and survey were worth 0.40 together.  You are welcome to repeat this experiment a number of times as you see more assignments come up.
p5249
sa(dp5250
Vstatus
p5251
Vcompleted
p5252
sVexitdata
p5253
(dp5254
Vfeedback
p5255
g736
ssVsubmitTime
p5256
g9
(S'\x07\xe1\x04\r\x05:\x0b\x01S\xd8'
p5257
tp5258
Rp5259
sVinstances
p5260
(lp5261
(dp5262
VleaveTime
p5263
g9
(S'\x07\xe1\x04\r\x05:\x05\x05\x01@'
p5264
tp5265
Rp5266
sVjoinTime
p5267
g9
(S"\x07\xe1\x04\r\x055)\x0b'x"
p5268
tp5269
Rp5270
sVid
p5271
V548WnM6cWaGXyxFm7
p5272
sasVassignmentId
p5273
V3II4UPYCOJ7XCRUJSC9EJ9Y65VTDQX
p5274
sVworkerId
p5275
VA1U8RH67FLZW87
p5276
sVipAddr
p5277
(lp5278
V172.17.0.4
p5279
asVbonusPaid
p5280
g9
(S'\x07\xe1\x04\r\x11\x1f;\x03\xf7\xa0'
p5281
tp5282
Rp5283
sVbatchId
p5284
VdpmhLMSeHeJP8wGdo
p5285
sVacceptTime
p5286
g9
(S'\x07\xe1\x04\r\x055%\x07C`'
p5287
tp5288
Rp5289
sVmturkStatus
p5290
VApproved
p5291
sVhitId
p5292
V3HXCEECSQMT61AS7L2A3Y4OUHC8YZA
p5293
sVuserAgent
p5294
(lp5295
VMozilla/5.0 (Windows NT 10.0; Win64; x64) AppleWebKit/537.36 (KHTML, like Gecko) Chrome/57.0.2987.133 Safari/537.36
p5296
asV_id
p5297
VqZB8GnFWTuZmgCPmx
p5298
sVbonusPayment
p5299
F1.2000000000000002
sVbonusMessage
p5300
VThank you for you participation. This bonus combines your earnings from Section 1 and Section 2, and, if this was your first time, the quiz and survey were worth 0.40 together.  You are welcome to repeat this experiment a number of times as you see more assignments come up.
p5301
sa(dp5302
Vstatus
p5303
Vcompleted
p5304
sVexitdata
p5305
(dp5306
Vfeedback
p5307
g736
ssVsubmitTime
p5308
g9
(S'\x07\xe1\x04\r\x06\x00\x07\x06d\xb8'
p5309
tp5310
Rp5311
sVinstances
p5312
(lp5313
(dp5314
VleaveTime
p5315
g9
(S'\x07\xe1\x04\r\x06\x00\x02\t\x1c\x08'
p5316
tp5317
Rp5318
sVjoinTime
p5319
g9
(S'\x07\xe1\x04\r\x059(\x04U`'
p5320
tp5321
Rp5322
sVid
p5323
VkZExLdEuPCHhJqk4e
p5324
sasVassignmentId
p5325
V3HSYG7LRBJYJFU2Y7OB4R0HNQYYKKP
p5326
sVworkerId
p5327
VA37WXDYYT7RCZ0
p5328
sVipAddr
p5329
(lp5330
V172.17.0.4
p5331
asVbonusPaid
p5332
g9
(S'\x07\xe1\x04\r\x11 \x00\x00\x00\x00'
p5333
tp5334
Rp5335
sVbatchId
p5336
VdpmhLMSeHeJP8wGdo
p5337
sVacceptTime
p5338
g9
(S'\x07\xe1\x04\r\x058\x17\x04\x0f\x10'
p5339
tp5340
Rp5341
sVmturkStatus
p5342
VApproved
p5343
sVhitId
p5344
V32TZXEA1OLKT87TFOKD4QL0B9WX144
p5345
sVuserAgent
p5346
(lp5347
VMozilla/5.0 (Windows NT 6.3; WOW64) AppleWebKit/537.36 (KHTML, like Gecko) Chrome/57.0.2987.133 Safari/537.36
p5348
asV_id
p5349
VXGPkpFpeYabLy3Ppk
p5350
sVbonusPayment
p5351
F1.8000000000000003
sVbonusMessage
p5352
VThank you for you participation. This bonus combines your earnings from Section 1 and Section 2, and, if this was your first time, the quiz and survey were worth 0.40 together.  You are welcome to repeat this experiment a number of times as you see more assignments come up.
p5353
sa(dp5354
Vstatus
p5355
Vcompleted
p5356
sVexitdata
p5357
(dp5358
Vfeedback
p5359
g736
ssVsubmitTime
p5360
g9
(S'\x07\xe1\x04\r\x06\x02\t\x0eL('
p5361
tp5362
Rp5363
sVinstances
p5364
(lp5365
(dp5366
VleaveTime
p5367
g9
(S'\x07\xe1\x04\r\x06\x02\x03\x00ix'
p5368
tp5369
Rp5370
sVjoinTime
p5371
g9
(S'\x07\xe1\x04\r\x059\x17\x0f#\x00'
p5372
tp5373
Rp5374
sVid
p5375
VaEJnfM9rQQ4qo9Bk4
p5376
sasVassignmentId
p5377
V3TUI152ZZBN3KWE7CJPJI7XXGYQQ1K
p5378
sVworkerId
p5379
VAB66CTVQ90RCV
p5380
sVipAddr
p5381
(lp5382
V172.17.0.4
p5383
asVbonusPaid
p5384
g9
(S'\x07\xe1\x04\r\x11 \x00\x05\xb8\xd8'
p5385
tp5386
Rp5387
sVbatchId
p5388
VdpmhLMSeHeJP8wGdo
p5389
sVacceptTime
p5390
g9
(S'\x07\xe1\x04\r\x059\x0b\x04l\xd0'
p5391
tp5392
Rp5393
sVmturkStatus
p5394
VApproved
p5395
sVhitId
p5396
V3HXCEECSQMT61AS7L2A3Y4OUHC8YZA
p5397
sVuserAgent
p5398
(lp5399
VMozilla/5.0 (Windows NT 10.0; WOW64) AppleWebKit/537.36 (KHTML, like Gecko) Chrome/57.0.2987.133 Safari/537.36
p5400
asV_id
p5401
VRCGyrsaRHT2JTmtB7
p5402
sVbonusPayment
p5403
F0.9000000000000001
sVbonusMessage
p5404
VThank you for you participation. This bonus combines your earnings from Section 1 and Section 2, and, if this was your first time, the quiz and survey were worth 0.40 together.  You are welcome to repeat this experiment a number of times as you see more assignments come up.
p5405
sa(dp5406
Vstatus
p5407
Vcompleted
p5408
sVexitdata
p5409
(dp5410
Vfeedback
p5411
g736
ssVsubmitTime
p5412
g9
(S"\x07\xe1\x04\r\x06\x04'\x08\xcd\xe8"
p5413
tp5414
Rp5415
sVinstances
p5416
(lp5417
(dp5418
VleaveTime
p5419
g9
(S'\x07\xe1\x04\r\x06\x04$\x0c!x'
p5420
tp5421
Rp5422
sVjoinTime
p5423
g9
(S'\x07\xe1\x04\r\x06\x02\x1d\x06\xedp'
p5424
tp5425
Rp5426
sVid
p5427
VbWCECQLbefpNDdPNF
p5428
sasVassignmentId
p5429
V3FE7TXL1LINA9HW3VNPXNQ72844Q21
p5430
sVworkerId
p5431
VAB66CTVQ90RCV
p5432
sVipAddr
p5433
(lp5434
V172.17.0.4
p5435
asVbonusPaid
p5436
g9
(S'\x07\xe1\x04\r\x11 \x00\x08\xdd\x88'
p5437
tp5438
Rp5439
sVbatchId
p5440
VdpmhLMSeHeJP8wGdo
p5441
sVacceptTime
p5442
g9
(S'\x07\xe1\x04\r\x06\x02\x0f\x02>8'
p5443
tp5444
Rp5445
sVmturkStatus
p5446
VApproved
p5447
sVhitId
p5448
V32TZXEA1OLKT87TFOKD4QL0B9WX144
p5449
sVuserAgent
p5450
(lp5451
VMozilla/5.0 (Windows NT 10.0; WOW64) AppleWebKit/537.36 (KHTML, like Gecko) Chrome/57.0.2987.133 Safari/537.36
p5452
asV_id
p5453
V2XZRyw2ofNk9utXFP
p5454
sVbonusPayment
p5455
F1.8000000000000003
sVbonusMessage
p5456
VThank you for you participation. This bonus combines your earnings from Section 1 and Section 2, and, if this was your first time, the quiz and survey were worth 0.40 together.  You are welcome to repeat this experiment a number of times as you see more assignments come up.
p5457
sa(dp5458
Vstatus
p5459
Vcompleted
p5460
sVexitdata
p5461
(dp5462
Vfeedback
p5463
g736
ssVsubmitTime
p5464
g9
(S'\x07\xe1\x04\x0e\x040\x11\t}\xb0'
p5465
tp5466
Rp5467
sVinstances
p5468
(lp5469
(dp5470
VleaveTime
p5471
g9
(S'\x07\xe1\x04\x0e\x040\x03\x03\xadh'
p5472
tp5473
Rp5474
sVjoinTime
p5475
g9
(S'\x07\xe1\x04\x0e\x04+\n\nH\xd0'
p5476
tp5477
Rp5478
sVid
p5479
VbPWiBTNoupcfpDenN
p5480
sasVassignmentId
p5481
V3SKRO2GZ71RH9TGCZE5MMLLOHSVK1J
p5482
sVworkerId
p5483
VA2WCV7ULUPKVNQ
p5484
sVipAddr
p5485
(lp5486
V172.17.0.4
p5487
asVbonusPaid
p5488
g9
(S'\x07\xe1\x04\x10\x15,\x1c\x03r\xd0'
p5489
tp5490
Rp5491
sVbatchId
p5492
VdpmhLMSeHeJP8wGdo
p5493
sVacceptTime
p5494
g9
(S'\x07\xe1\x04\r\x06.\x19\x08\xf1\x10'
p5495
tp5496
Rp5497
sVmturkStatus
p5498
VApproved
p5499
sVhitId
p5500
V3W1K7D6QSBHAO2ZWBAWJQTQTW1RBZ5
p5501
sVuserAgent
p5502
(lp5503
VMozilla/5.0 (Windows NT 10.0; WOW64) AppleWebKit/537.36 (KHTML, like Gecko) Chrome/57.0.2987.133 Safari/537.36
p5504
asV_id
p5505
VERZRFXczcvwWqGPwT
p5506
sVbonusPayment
p5507
F2.2
sVbonusMessage
p5508
VYou earned the maximum in this experiment, 0.40 for the quiz and survey, 0.90 for section 1, and 0.90 for section 2.  
p5509
sa(dp5510
Vstatus
p5511
Vcompleted
p5512
sVexitdata
p5513
(dp5514
Vfeedback
p5515
VNo problems, thank you
p5516
ssVsubmitTime
p5517
g9
(S'\x07\xe1\x04\r\x077-\x0c\xaa0'
p5518
tp5519
Rp5520
sVinstances
p5521
(lp5522
(dp5523
VleaveTime
p5524
g9
(S'\x07\xe1\x04\r\x077\x17\x03@\x08'
p5525
tp5526
Rp5527
sVjoinTime
p5528
g9
(S'\x07\xe1\x04\r\x070+\x0c8\xe8'
p5529
tp5530
Rp5531
sVid
p5532
VJtMWLYu3Zhdms2Z6d
p5533
sasVassignmentId
p5534
V3X66WABAJWI8HAY8WRYQCM8S8VVG37
p5535
sVworkerId
p5536
VA16HSMUJ7C7QA7
p5537
sVipAddr
p5538
(lp5539
V172.17.0.4
p5540
asVbonusPaid
p5541
g9
(S'\x07\xe1\x04\r\x11 \x01\x03@\x08'
p5542
tp5543
Rp5544
sVbatchId
p5545
VdpmhLMSeHeJP8wGdo
p5546
sVacceptTime
p5547
g9
(S'\x07\xe1\x04\r\x07\x0f\x19\x08\x9b '
p5548
tp5549
Rp5550
sVmturkStatus
p5551
VApproved
p5552
sVhitId
p5553
V32TZXEA1OLKT87TFOKD4QL0B9WX144
p5554
sVuserAgent
p5555
(lp5556
VMozilla/5.0 (Windows NT 6.1; WOW64; rv:52.0) Gecko/20100101 Firefox/52.0
p5557
asV_id
p5558
VHNCY8Rrq43cTdB3pY
p5559
sVbonusPayment
p5560
F1.5
sVbonusMessage
p5561
VThank you for you participation. This bonus combines your earnings from Section 1 and Section 2, and, if this was your first time, the quiz and survey were worth 0.40 together.  You are welcome to repeat this experiment a number of times as you see more assignments come up.
p5562
sa(dp5563
Vstatus
p5564
Vcompleted
p5565
sVexitdata
p5566
(dp5567
Vfeedback
p5568
VThanks.
p5569
ssVsubmitTime
p5570
g9
(S'\x07\xe1\x04\r\x08\x02 \x0e{\x08'
p5571
tp5572
Rp5573
sVinstances
p5574
(lp5575
(dp5576
VleaveTime
p5577
g9
(S'\x07\xe1\x04\r\x08\x02\x0f\x0e\xbdp'
p5578
tp5579
Rp5580
sVjoinTime
p5581
g9
(S'\x07\xe1\x04\r\x076\x13\x03c0'
p5582
tp5583
Rp5584
sVid
p5585
VfoW9SbuFQ9vQQHw8h
p5586
sasVassignmentId
p5587
V3KKG4CDWKIYEKWU4IZXZUAEBIIW94U
p5588
sVworkerId
p5589
VA2K56J9POYUFCA
p5590
sVipAddr
p5591
(lp5592
V172.17.0.4
p5593
asVbonusPaid
p5594
g9
(S'\x07\xe1\x04\r\x11\x14)\x00*\xf8'
p5595
tp5596
Rp5597
sVbatchId
p5598
VdpmhLMSeHeJP8wGdo
p5599
sVacceptTime
p5600
g9
(S'\x07\xe1\x04\r\x0754\n\x93\x08'
p5601
tp5602
Rp5603
sVmturkStatus
p5604
VApproved
p5605
sVhitId
p5606
V3HXCEECSQMT61AS7L2A3Y4OUHC8YZA
p5607
sVuserAgent
p5608
(lp5609
VMozilla/5.0 (Macintosh; Intel Mac OS X 10_11_6) AppleWebKit/537.36 (KHTML, like Gecko) Chrome/57.0.2987.133 Safari/537.36
p5610
asV_id
p5611
V7ukC2XDCJ9TvYB72R
p5612
sVbonusPayment
p5613
F1.1
sVbonusMessage
p5614
VAccording to my logs, you may have been dealing with lag or some other problem during this HIT.  I think I found the issue, but if you have any other information, it will be very helpful in preventing others from facing the same problem.  You made 4 points in section 1 and 7 in section 2.  \u000a
p5615
sa(dp5616
Vstatus
p5617
Vcompleted
p5618
sVexitdata
p5619
(dp5620
Vfeedback
p5621
g736
ssVsubmitTime
p5622
g9
(S'\x07\xe1\x04\r\x16\x10\x13\x08\x7f\xc8'
p5623
tp5624
Rp5625
sVinstances
p5626
(lp5627
(dp5628
VleaveTime
p5629
g9
(S'\x07\xe1\x04\r\x16\x0f6\r\xcf('
p5630
tp5631
Rp5632
sVjoinTime
p5633
g9
(S'\x07\xe1\x04\r\x15;9\x07/\xd8'
p5634
tp5635
Rp5636
sVid
p5637
VaJFffsfy4m8KJyT5j
p5638
sasVassignmentId
p5639
V3Z3ZLGNNSIUZUZSMZN3260CUEI03QL
p5640
sVworkerId
p5641
VA32CRWJESR6AX4
p5642
sVipAddr
p5643
(lp5644
V172.17.0.4
p5645
asVbonusPaid
p5646
g9
(S'\x07\xe1\x04\x10\x150,\x06Q0'
p5647
tp5648
Rp5649
sVbatchId
p5650
VdpmhLMSeHeJP8wGdo
p5651
sVacceptTime
p5652
g9
(S'\x07\xe1\x04\r\n\x00\x15\x0e\xe4\x80'
p5653
tp5654
Rp5655
sVmturkStatus
p5656
VApproved
p5657
sVhitId
p5658
V3MVY4USGB6NNAYROMSUSGNX34AWSI7
p5659
sVuserAgent
p5660
(lp5661
VMozilla/5.0 (Windows NT 6.1) AppleWebKit/537.36 (KHTML, like Gecko) Chrome/57.0.2987.133 Safari/537.36
p5662
asV_id
p5663
V3bf3L7k7fwK2s7Hrz
p5664
sVbonusPayment
p5665
F1.8
sVbonusMessage
p5666
VThank you for you participation. This bonus combines your earnings from Section 1 and Section 2, and, if this was your first time, the quiz and survey were worth 0.40 together.  You are welcome to repeat this experiment a number of times as you see more assignments come up.
p5667
sa(dp5668
Vstatus
p5669
Vcompleted
p5670
sVexitdata
p5671
(dp5672
Vfeedback
p5673
VInteresting and well-designed study.
p5674
ssVsubmitTime
p5675
g9
(S'\x07\xe1\x04\x0e\x02\x10$\x02eH'
p5676
tp5677
Rp5678
sVinstances
p5679
(lp5680
(dp5681
VleaveTime
p5682
g9
(S'\x07\xe1\x04\x0e\x02\x10\r\x03\x11('
p5683
tp5684
Rp5685
sVjoinTime
p5686
g9
(S'\x07\xe1\x04\r\x17\x1d0\r\xcf('
p5687
tp5688
Rp5689
sVid
p5690
VA2b8woZTuGPRxxapR
p5691
sVdisconnectedTime
p5692
I153949
sasVassignmentId
p5693
V3HSYG7LRBJYJFU2Y7OB4R0HNQYXKKO
p5694
sVworkerId
p5695
VAKSJ3C5O3V9RB
p5696
sVipAddr
p5697
(lp5698
V172.17.0.4
p5699
asVbonusPaid
p5700
g9
(S'\x07\xe1\x04\x10\x150-\r6\xd0'
p5701
tp5702
Rp5703
sVbatchId
p5704
VdpmhLMSeHeJP8wGdo
p5705
sVacceptTime
p5706
g9
(S'\x07\xe1\x04\r\x0c8&\x06.\x08'
p5707
tp5708
Rp5709
sVmturkStatus
p5710
VApproved
p5711
sVhitId
p5712
V31ODACBENUF0RWF7Z0Z1PPOPVNWSQZ
p5713
sVuserAgent
p5714
(lp5715
VMozilla/5.0 (Macintosh; Intel Mac OS X 10_10_5) AppleWebKit/537.36 (KHTML, like Gecko) Chrome/58.0.3029.54 Safari/537.36
p5716
asV_id
p5717
VQxvaJ9Qp5dD2nsaX4
p5718
sVbonusPayment
p5719
F1.3
sVbonusMessage
p5720
VThank you for you participation. This bonus combines your earnings from Section 1 and Section 2, and, if this was your first time, the quiz and survey were worth 0.40 together.  You are welcome to repeat this experiment a number of times as you see more assignments come up.
p5721
sa(dp5722
Vstatus
p5723
Vcompleted
p5724
sVexitdata
p5725
(dp5726
Vfeedback
p5727
VThis was a fun HIT, the instructions were very step by step and clear.
p5728
ssVsubmitTime
p5729
g9
(S'\x07\xe1\x04\x0e\x00"$\n\xa2\xa8'
p5730
tp5731
Rp5732
sVinstances
p5733
(lp5734
(dp5735
VleaveTime
p5736
g9
(S'\x07\xe1\x04\x0e\x00!3\x02\x1b\x10'
p5737
tp5738
Rp5739
sVjoinTime
p5740
g9
(S'\x07\xe1\x04\x0e\x00\x1b\x01\r\xeeh'
p5741
tp5742
Rp5743
sVid
p5744
V78NnEmHFx2WTZfmhF
p5745
sasVassignmentId
p5746
V3X31TUMD7XMSTZYUKEHN1LY36SYL1L
p5747
sVworkerId
p5748
VAKCH7EGJBNV43
p5749
sVipAddr
p5750
(lp5751
V172.17.0.4
p5752
asVbonusPaid
p5753
g9
(S'\x07\xe1\x04\x10\x150-\x03\xc4\xd8'
p5754
tp5755
Rp5756
sVbatchId
p5757
VdpmhLMSeHeJP8wGdo
p5758
sVacceptTime
p5759
g9
(S'\x07\xe1\x04\r\r\x0b"\x0cLp'
p5760
tp5761
Rp5762
sVmturkStatus
p5763
VApproved
p5764
sVhitId
p5765
V3JMNNNO3B14C6UUVHUJ1QWT7LROW28
p5766
sVuserAgent
p5767
(lp5768
VMozilla/5.0 (Windows NT 10.0; WOW64) AppleWebKit/537.36 (KHTML, like Gecko) Chrome/57.0.2987.133 Safari/537.36
p5769
asV_id
p5770
VkRb3RqZbzazGbLTxT
p5771
sVbonusPayment
p5772
I2
sVbonusMessage
p5773
VThank you for you participation. This bonus combines your earnings from Section 1 and Section 2, and, if this was your first time, the quiz and survey were worth 0.40 together.  You are welcome to repeat this experiment a number of times as you see more assignments come up.
p5774
sa(dp5775
Vstatus
p5776
Vcompleted
p5777
sVexitdata
p5778
(dp5779
Vfeedback
p5780
g736
ssVsubmitTime
p5781
g9
(S'\x07\xe1\x04\r\x0f5\x02\x06\x0e\xc8'
p5782
tp5783
Rp5784
sVinstances
p5785
(lp5786
(dp5787
VleaveTime
p5788
g9
(S'\x07\xe1\x04\r\x0f48\x0c)H'
p5789
tp5790
Rp5791
sVjoinTime
p5792
g9
(S'\x07\xe1\x04\r\x0f0\x08\t\xa8\xa8'
p5793
tp5794
Rp5795
sVid
p5796
VytgtiQFsKJJ5XKT33
p5797
sasVassignmentId
p5798
V3JAOYWH7VI4AI41PORWGGRGM44EL9M
p5799
sVworkerId
p5800
VA2581F7TDPAMBQ
p5801
sVipAddr
p5802
(lp5803
V172.17.0.4
p5804
asVbonusPaid
p5805
g9
(S'\x07\xe1\x04\x0e\x03\x016\tJ\xe8'
p5806
tp5807
Rp5808
sVbatchId
p5809
VdpmhLMSeHeJP8wGdo
p5810
sVacceptTime
p5811
g9
(S'\x07\xe1\x04\r\x0e!\x1f\x05?\xc0'
p5812
tp5813
Rp5814
sVmturkStatus
p5815
VApproved
p5816
sVhitId
p5817
V3GS542CVJVNTTV0A62B7AJO86V959W
p5818
sVuserAgent
p5819
(lp5820
VMozilla/5.0 (Windows NT 6.3; WOW64) AppleWebKit/537.36 (KHTML, like Gecko) Chrome/57.0.2987.133 Safari/537.36
p5821
asV_id
p5822
V3Gskn67N5tiPpes3Z
p5823
sVbonusPayment
p5824
F1.6
sVbonusMessage
p5825
V0.40 for quiz and survey, 0.70 for section 1, and 0.50 for section 2. Thank you for participating.
p5826
sa(dp5827
Vstatus
p5828
Vcompleted
p5829
sVexitdata
p5830
(dp5831
Vfeedback
p5832
VI enjoyed the task. Thanks!
p5833
ssVsubmitTime
p5834
g9
(S'\x07\xe1\x04\r\x13-\x05\x02\x0fX'
p5835
tp5836
Rp5837
sVinstances
p5838
(lp5839
(dp5840
VleaveTime
p5841
g9
(S'\x07\xe1\x04\r\x13,\x0e\x08\xf1\x10'
p5842
tp5843
Rp5844
sVjoinTime
p5845
g9
(S'\x07\xe1\x04\r\x13!\x1b\x07GH'
p5846
tp5847
Rp5848
sVid
p5849
VW5fhD2CszcFgkjPbN
p5850
sasVassignmentId
p5851
V3QXNC7EIPIVXL8C3ZYAXI7OY16D90B
p5852
sVworkerId
p5853
VA40LU73SS18IW
p5854
sVipAddr
p5855
(lp5856
V172.17.0.4
p5857
asVbonusPaid
p5858
g9
(S'\x07\xe1\x04\x10\x150,\x02\xe2H'
p5859
tp5860
Rp5861
sVbatchId
p5862
VdpmhLMSeHeJP8wGdo
p5863
sVacceptTime
p5864
g9
(S'\x07\xe1\x04\r\x11\x0b#\x04\xbe\xd8'
p5865
tp5866
Rp5867
sVmturkStatus
p5868
VApproved
p5869
sVhitId
p5870
V3SSN80MU8COMCA3BG5LRSBT8BV1KX0
p5871
sVuserAgent
p5872
(lp5873
VMozilla/5.0 (Windows NT 6.0; WOW64) AppleWebKit/537.36 (KHTML, like Gecko) Chrome/49.0.2623.112 Safari/537.36
p5874
asV_id
p5875
VsFDZCkZ3fwefcQRWh
p5876
sVbonusPayment
p5877
F1.2999999999999998
sVbonusMessage
p5878
VThank you for you participation. This bonus combines your earnings from Section 1 and Section 2, and, if this was your first time, the quiz and survey were worth 0.40 together.  You are welcome to repeat this experiment a number of times as you see more assignments come up.
p5879
sa(dp5880
Vstatus
p5881
Vcompleted
p5882
sVexitdata
p5883
(dp5884
Vfeedback
p5885
g736
ssVsubmitTime
p5886
g9
(S'\x07\xe1\x04\x0e\x01\x1b3\t\x00\xb0'
p5887
tp5888
Rp5889
sVinstances
p5890
(lp5891
(dp5892
VleaveTime
p5893
g9
(S'\x07\xe1\x04\x0e\x01\x1b \r\xa40'
p5894
tp5895
Rp5896
sVjoinTime
p5897
g9
(S'\x07\xe1\x04\x0e\x01\x16\x15\t?0'
p5898
tp5899
Rp5900
sVid
p5901
VWYBGMhgAfgqjQAEWq
p5902
sasVassignmentId
p5903
V3II4UPYCOJ7XCRUJSC9EJ9Y65UCQDR
p5904
sVworkerId
p5905
VA1KGCOR8OXYR72
p5906
sVipAddr
p5907
(lp5908
V172.17.0.4
p5909
asVbonusPaid
p5910
g9
(S'\x07\xe1\x04\x10\x150-\x06\xdd\xd0'
p5911
tp5912
Rp5913
sVbatchId
p5914
VdpmhLMSeHeJP8wGdo
p5915
sVacceptTime
p5916
g9
(S'\x07\xe1\x04\r\x14\x1c\x03\n)\x90'
p5917
tp5918
Rp5919
sVmturkStatus
p5920
VApproved
p5921
sVhitId
p5922
V3ZQX1VYFTD5FN0NI6P1SJTTO3IFO8A
p5923
sVuserAgent
p5924
(lp5925
VMozilla/5.0 (Windows NT 6.3; Win64; x64) AppleWebKit/537.36 (KHTML, like Gecko) Chrome/57.0.2987.133 Safari/537.36
p5926
asV_id
p5927
VRWenLxo2btMQuadCE
p5928
sVbonusPayment
p5929
F1.9000000000000001
sVbonusMessage
p5930
VThank you for you participation. This bonus combines your earnings from Section 1 and Section 2, and, if this was your first time, the quiz and survey were worth 0.40 together.  You are welcome to repeat this experiment a number of times as you see more assignments come up.
p5931
sa(dp5932
Vstatus
p5933
Vcompleted
p5934
sVexitdata
p5935
(dp5936
Vfeedback
p5937
g736
ssVsubmitTime
p5938
g9
(S'\x07\xe1\x04\x0e\x00\x0e\r\t^p'
p5939
tp5940
Rp5941
sVinstances
p5942
(lp5943
(dp5944
VleaveTime
p5945
g9
(S'\x07\xe1\x04\x0e\x00\x0e\x04\r\xe2\xb0'
p5946
tp5947
Rp5948
sVjoinTime
p5949
g9
(S'\x07\xe1\x04\x0e\x00\n\x02\x03\x82p'
p5950
tp5951
Rp5952
sVid
p5953
VDp7Fx4gx6RADo95qY
p5954
sasVassignmentId
p5955
V3IHR8NYAM71ZCJABZOTWG0EQNPSP4P
p5956
sVworkerId
p5957
VAMZV70TID53WY
p5958
sVipAddr
p5959
(lp5960
V172.17.0.4
p5961
asVbonusPaid
p5962
g9
(S'\x07\xe1\x04\x10\x150,\x0e\x11\x90'
p5963
tp5964
Rp5965
sVbatchId
p5966
VdpmhLMSeHeJP8wGdo
p5967
sVacceptTime
p5968
g9
(S'\x07\xe1\x04\r\x176\t\x00\xaf\xc8'
p5969
tp5970
Rp5971
sVmturkStatus
p5972
VApproved
p5973
sVhitId
p5974
V3Y40HMYLL1I0F68NAJPTYY26EXYUXT
p5975
sVuserAgent
p5976
(lp5977
VMozilla/5.0 (Windows NT 6.1; WOW64) AppleWebKit/537.36 (KHTML, like Gecko) Chrome/56.0.2924.87 Safari/537.36
p5978
asV_id
p5979
VbxBFnD5HkiNBkretm
p5980
sVbonusPayment
p5981
F1.6
sVbonusMessage
p5982
VThank you for you participation. This bonus combines your earnings from Section 1 and Section 2, and, if this was your first time, the quiz and survey were worth 0.40 together.  You are welcome to repeat this experiment a number of times as you see more assignments come up.
p5983
sa(dp5984
Vstatus
p5985
Vcompleted
p5986
sVexitdata
p5987
(dp5988
Vfeedback
p5989
g736
ssVsubmitTime
p5990
g9
(S'\x07\xe1\x04\x0e\x00\x03\x08\x00\x1bX'
p5991
tp5992
Rp5993
sVinstances
p5994
(lp5995
(dp5996
VleaveTime
p5997
g9
(S'\x07\xe1\x04\x0e\x00\x02+\x06\xba\xa8'
p5998
tp5999
Rp6000
sVjoinTime
p6001
g9
(S'\x07\xe1\x04\r\x1772\x01\x82\xb8'
p6002
tp6003
Rp6004
sVid
p6005
VmeeYiQQoP7pmYePDA
p6006
sasVassignmentId
p6007
V3NPI0JQDAO5JT4P1EPU4O8QI3O9TPP
p6008
sVworkerId
p6009
VAGVUHOBSCP6YC
p6010
sVipAddr
p6011
(lp6012
V172.17.0.4
p6013
asVbonusPaid
p6014
g9
(S'\x07\xe1\x04\x10\x150,\n)\x90'
p6015
tp6016
Rp6017
sVbatchId
p6018
VdpmhLMSeHeJP8wGdo
p6019
sVacceptTime
p6020
g9
(S'\x07\xe1\x04\r\x177\x19\nT\x88'
p6021
tp6022
Rp6023
sVmturkStatus
p6024
VApproved
p6025
sVhitId
p6026
V3Y40HMYLL1I0F68NAJPTYY26EXYUXT
p6027
sVuserAgent
p6028
(lp6029
VMozilla/5.0 (Windows NT 10.0; WOW64) AppleWebKit/537.36 (KHTML, like Gecko) Chrome/57.0.2987.111 Safari/537.36 Vivaldi/1.8.770.50
p6030
asV_id
p6031
VE4zj25JZGy3o7Ypum
p6032
sVbonusPayment
p6033
F1.2
sVbonusMessage
p6034
VThank you for you participation. This bonus combines your earnings from Section 1 and Section 2, and, if this was your first time, the quiz and survey were worth 0.40 together.  You are welcome to repeat this experiment a number of times as you see more assignments come up.
p6035
sa(dp6036
Vstatus
p6037
Vcompleted
p6038
sVexitdata
p6039
(dp6040
Vfeedback
p6041
VInteresting and well-designed study.
p6042
ssVsubmitTime
p6043
g9
(S'\x07\xe1\x04\x0e\x02 \x0f\t\xf2\xe0'
p6044
tp6045
Rp6046
sVinstances
p6047
(lp6048
(dp6049
VleaveTime
p6050
g9
(S'\x07\xe1\x04\x0e\x02 \x04\x07Z\xd0'
p6051
tp6052
Rp6053
sVjoinTime
p6054
g9
(S'\x07\xe1\x04\x0e\x02\x11\x07\t+\xa8'
p6055
tp6056
Rp6057
sVid
p6058
VjHWKMzx5Ehy445ekC
p6059
sasVassignmentId
p6060
V3LWJHTCVCCMUAB8FJI44791RH88FQ9
p6061
sVworkerId
p6062
VAKSJ3C5O3V9RB
p6063
sVipAddr
p6064
(lp6065
V172.17.0.4
p6066
asVbonusPaid
p6067
g9
(S'\x07\xe1\x04\x10\x150.\x01\x11p'
p6068
tp6069
Rp6070
sVbatchId
p6071
VdpmhLMSeHeJP8wGdo
p6072
sVacceptTime
p6073
g9
(S'\x07\xe1\x04\x0e\x02\x107\x08\xbeH'
p6074
tp6075
Rp6076
sVmturkStatus
p6077
VApproved
p6078
sVhitId
p6079
V32TMVRKDGNYBJ7D0N5MJ5VNJN1884Y
p6080
sVuserAgent
p6081
(lp6082
VMozilla/5.0 (Macintosh; Intel Mac OS X 10_10_5) AppleWebKit/537.36 (KHTML, like Gecko) Chrome/58.0.3029.54 Safari/537.36
p6083
asV_id
p6084
VkXu8wZuxx3WirZK2r
p6085
sVbonusPayment
p6086
F1.8000000000000003
sVbonusMessage
p6087
VThank you for you participation. This bonus combines your earnings from Section 1 and Section 2, and, if this was your first time, the quiz and survey were worth 0.40 together.  You are welcome to repeat this experiment a number of times as you see more assignments come up.
p6088
sa.