(lp0
(dp1
V_id
p2
VCTjgTGr7nN7SRFMQW
p3
sVusers
p4
(lp5
VXSreo4RoaNqbKpmkK
p6
asVtreatments
p7
(lp8
sVbatchId
p9
VdpmhLMSeHeJP8wGdo
p10
sVstartTime
p11
cdatetime
datetime
p12
(S'\x07\xe1\x04\x0b\x0f\x152\x0b\xf6\x80'
p13
tp14
Rp15
sVendTime
p16
g12
(S'\x07\xe1\x04\x0b\x0f\x19\x10\x07\x0c\xb0'
p17
tp18
Rp19
sa(dp20
V_id
p21
VX62qNLLWXEmZ3Gmtc
p22
sVusers
p23
(lp24
Vr6D7Ym94xLPbWSFvE
p25
asVtreatments
p26
(lp27
sVbatchId
p28
VdpmhLMSeHeJP8wGdo
p29
sVstartTime
p30
g12
(S'\x07\xe1\x04\x0b\x0f\x17\x00\x010\xb0'
p31
tp32
Rp33
sVendTime
p34
g12
(S'\x07\xe1\x04\x0b\x0f )\x0e8\xa0'
p35
tp36
Rp37
sa(dp38
V_id
p39
V2shHFqmTEKnwY2JHq
p40
sVusers
p41
(lp42
Vw2dCCQFuHrf9Bkodc
p43
asVtreatments
p44
(lp45
sVbatchId
p46
VdpmhLMSeHeJP8wGdo
p47
sVstartTime
p48
g12
(S'\x07\xe1\x04\x0b\x0f\x1f\r\x04\xba\xf0'
p49
tp50
Rp51
sVendTime
p52
g12
(S'\x07\xe1\x04\x0b\x0f!7\x08\x1a8'
p53
tp54
Rp55
sa(dp56
V_id
p57
VzCfTBn63gSZBdwwsK
p58
sVusers
p59
(lp60
V38pi4HxgRX27sTq4b
p61
asVtreatments
p62
(lp63
sVbatchId
p64
VdpmhLMSeHeJP8wGdo
p65
sVstartTime
p66
g12
(S'\x07\xe1\x04\x0b\x0f#"\x03z\xa0'
p67
tp68
Rp69
sVendTime
p70
g12
(S'\x07\xe1\x04\x0b\x0f)%\n\x93\x08'
p71
tp72
Rp73
sa(dp74
V_id
p75
VZEcQGgMLwvKBxEmXD
p76
sVusers
p77
(lp78
VEaXw7z2Y2wtsvHRBM
p79
asVtreatments
p80
(lp81
sVbatchId
p82
VdpmhLMSeHeJP8wGdo
p83
sVstartTime
p84
g12
(S'\x07\xe1\x04\x0b\x0f#,\x03\xa1\xb0'
p85
tp86
Rp87
sVendTime
p88
g12
(S'\x07\xe1\x04\x0b\x0f(\x0e\nd('
p89
tp90
Rp91
sa(dp92
V_id
p93
VJFR3rFKAam7L7YYj5
p94
sVusers
p95
(lp96
VAP8vcD9dXt36haXn8
p97
asVtreatments
p98
(lp99
sVbatchId
p100
VdpmhLMSeHeJP8wGdo
p101
sVstartTime
p102
g12
(S'\x07\xe1\x04\x0b\x0f%\x1a\x065\xd8'
p103
tp104
Rp105
sVendTime
p106
g12
(S'\x07\xe1\x04\x0b\x0f)+\x04\x07@'
p107
tp108
Rp109
sa(dp110
V_id
p111
Vafn9MQH9PhKpiS9Hy
p112
sVusers
p113
(lp114
VzCAJyqF8ARDSSJrDX
p115
asVtreatments
p116
(lp117
sVbatchId
p118
VdpmhLMSeHeJP8wGdo
p119
sVstartTime
p120
g12
(S'\x07\xe1\x04\x0b\x0f3\x06\x03\xa1\xb0'
p121
tp122
Rp123
sVendTime
p124
g12
(S'\x07\xe1\x04\x0b\x0f;-\x0c\xb5\xe8'
p125
tp126
Rp127
sa(dp128
V_id
p129
VtceC6KdyacMyWAocJ
p130
sVusers
p131
(lp132
VkAaJW7zGCLBBfkh2X
p133
asVtreatments
p134
(lp135
sVbatchId
p136
VdpmhLMSeHeJP8wGdo
p137
sVstartTime
p138
g12
(S'\x07\xe1\x04\x0b\x12\x14(\x05vp'
p139
tp140
Rp141
sVendTime
p142
g12
(S'\x07\xe1\x04\x0b\x12\x1a-\x06\xd9\xe8'
p143
tp144
Rp145
sa(dp146
V_id
p147
VzqoqNvvCFAxG9jGGk
p148
sVusers
p149
(lp150
VsjdvgdNzgau4jnYvm
p151
asVtreatments
p152
(lp153
sVbatchId
p154
VdpmhLMSeHeJP8wGdo
p155
sVstartTime
p156
g12
(S'\x07\xe1\x04\x0b\x13 \x11\x08`\x88'
p157
tp158
Rp159
sVendTime
p160
g12
(S'\x07\xe1\x04\x0b\x13)"\x01\xdc\x90'
p161
tp162
Rp163
sa(dp164
V_id
p165
VqridZmRa4kohrk9sF
p166
sVusers
p167
(lp168
VYEwfheDvxFD5REcmG
p169
asVtreatments
p170
(lp171
sVbatchId
p172
VdpmhLMSeHeJP8wGdo
p173
sVstartTime
p174
g12
(S'\x07\xe1\x04\x0b\x14\x0e5\x01cx'
p175
tp176
Rp177
sVendTime
p178
g12
(S'\x07\xe1\x04\x0b\x14\x110\x08\xb2\x90'
p179
tp180
Rp181
sa(dp182
V_id
p183
VD9Wy3y7konZ9scxzn
p184
sVusers
p185
(lp186
VXSreo4RoaNqbKpmkK
p187
asVtreatments
p188
(lp189
sVbatchId
p190
VdpmhLMSeHeJP8wGdo
p191
sVstartTime
p192
g12
(S'\x07\xe1\x04\x0b\x14\x11\x01\x03z\xa0'
p193
tp194
Rp195
sVendTime
p196
g12
(S'\x07\xe1\x04\x0b\x14\x13\x1f\x05\x95\xb0'
p197
tp198
Rp199
sa(dp200
V_id
p201
V4bzMXH47zkpmqMAYh
p202
sVusers
p203
(lp204
Vfzn5XL42LHTcCNYJP
p205
asVtreatments
p206
(lp207
sVbatchId
p208
VdpmhLMSeHeJP8wGdo
p209
sVstartTime
p210
g12
(S'\x07\xe1\x04\x0b\x14\x17\x00\x02\xdax'
p211
tp212
Rp213
sVendTime
p214
g12
(S'\x07\xe1\x04\x0b\x14\x1d\x04\x04\xda0'
p215
tp216
Rp217
sa(dp218
V_id
p219
VhD43LfB4zNw252qGY
p220
sVusers
p221
(lp222
VsjdvgdNzgau4jnYvm
p223
asVtreatments
p224
(lp225
sVbatchId
p226
VdpmhLMSeHeJP8wGdo
p227
sVstartTime
p228
g12
(S'\x07\xe1\x04\x0b\x14\x19\x1b\x00\x94p'
p229
tp230
Rp231
sVendTime
p232
g12
(S'\x07\xe1\x04\x0b\x14"\x0b\t7`'
p233
tp234
Rp235
sa(dp236
V_id
p237
VX9aw5XjTidkJF5zkH
p238
sVusers
p239
(lp240
VNnrLFYb9Rw7duzNK6
p241
asVtreatments
p242
(lp243
sVbatchId
p244
VdpmhLMSeHeJP8wGdo
p245
sVstartTime
p246
g12
(S'\x07\xe1\x04\x0b\x14\x1e\x10\x06\\\xe8'
p247
tp248
Rp249
sVendTime
p250
g12
(S'\x07\xe1\x04\x0b\x14$\x07\x0b\xacH'
p251
tp252
Rp253
sa(dp254
V_id
p255
VN8G8zq5xPkeF7ay7u
p256
sVusers
p257
(lp258
VGcso2BbAN4WtgwLRD
p259
asVtreatments
p260
(lp261
sVbatchId
p262
VdpmhLMSeHeJP8wGdo
p263
sVstartTime
p264
g12
(S'\x07\xe1\x04\x0b\x14""\x0c@\xb8'
p265
tp266
Rp267
sVendTime
p268
g12
(S'\x07\xe1\x04\x0b\x14&\x17\x026h'
p269
tp270
Rp271
sa(dp272
V_id
p273
VQw7RsN7WmiNi5HQta
p274
sVusers
p275
(lp276
VNnrLFYb9Rw7duzNK6
p277
asVtreatments
p278
(lp279
sVbatchId
p280
VdpmhLMSeHeJP8wGdo
p281
sVstartTime
p282
g12
(S'\x07\xe1\x04\x0b\x14%\x16\x04\x80X'
p283
tp284
Rp285
sVendTime
p286
g12
(S'\x07\xe1\x04\x0b\x14(\x15\x06Q0'
p287
tp288
Rp289
sa(dp290
V_id
p291
VFs5RjFBxoC6BxduBm
p292
sVusers
p293
(lp294
VsjdvgdNzgau4jnYvm
p295
asVtreatments
p296
(lp297
sVbatchId
p298
VdpmhLMSeHeJP8wGdo
p299
sVstartTime
p300
g12
(S"\x07\xe1\x04\x0b\x14'\x13\x0b\xa8`"
p301
tp302
Rp303
sVendTime
p304
g12
(S'\x07\xe1\x04\x0b\x14,\x0e\x0cg\xc8'
p305
tp306
Rp307
sa(dp308
V_id
p309
VBg8Pj33c4Y25zB7rc
p310
sVusers
p311
(lp312
VNnrLFYb9Rw7duzNK6
p313
asVtreatments
p314
(lp315
sVbatchId
p316
VdpmhLMSeHeJP8wGdo
p317
sVstartTime
p318
g12
(S'\x07\xe1\x04\x0b\x14(.\x02\xca\xd8'
p319
tp320
Rp321
sVendTime
p322
g12
(S'\x07\xe1\x04\x0b\x14-\x14\x03\x99\xe0'
p323
tp324
Rp325
sa(dp326
V_id
p327
V93CBAo4HHinmifA28
p328
sVusers
p329
(lp330
Vh75S9sjJJ5FuFZrnt
p331
asVtreatments
p332
(lp333
sVbatchId
p334
VdpmhLMSeHeJP8wGdo
p335
sVstartTime
p336
g12
(S'\x07\xe1\x04\x0b\x14.4\x01D8'
p337
tp338
Rp339
sVendTime
p340
g12
(S'\x07\xe1\x04\x0b\x143\x0b\x0b\x98\xc0'
p341
tp342
Rp343
sa(dp344
V_id
p345
VDQ5ioohhhMainDwta
p346
sVusers
p347
(lp348
VR7yQJzocsJJCtCnAh
p349
asVtreatments
p350
(lp351
sVbatchId
p352
VdpmhLMSeHeJP8wGdo
p353
sVstartTime
p354
g12
(S'\x07\xe1\x04\x0b\x15\x13\n\x07\x81\xe0'
p355
tp356
Rp357
sVendTime
p358
g12
(S'\x07\xe1\x04\x0b\x15\x163\n\xa2\xa8'
p359
tp360
Rp361
sa(dp362
V_id
p363
VKNz7gcuyTwiyu5A7q
p364
sVusers
p365
(lp366
VsjdvgdNzgau4jnYvm
p367
asVtreatments
p368
(lp369
sVbatchId
p370
VdpmhLMSeHeJP8wGdo
p371
sVstartTime
p372
g12
(S'\x07\xe1\x04\x0b\x16\t&\x089x'
p373
tp374
Rp375
sVendTime
p376
g12
(S'\x07\xe1\x04\x0b\x16\x11\x1f\x0e\t\xc0'
p377
tp378
Rp379
sa(dp380
V_id
p381
VPDEZBBMeC42xbPSp9
p382
sVusers
p383
(lp384
VRmoXgMC3RJ3hrRpY3
p385
asVtreatments
p386
(lp387
sVbatchId
p388
VdpmhLMSeHeJP8wGdo
p389
sVstartTime
p390
g12
(S'\x07\xe1\x04\x0b\x16\x11\x06\t/\x90'
p391
tp392
Rp393
sVendTime
p394
g12
(S'\x07\xe1\x04\x0b\x16\x13\x17\tG\x00'
p395
tp396
Rp397
sa(dp398
V_id
p399
VJ6xQz2EZZN2v2PjaT
p400
sVusers
p401
(lp402
VsjdvgdNzgau4jnYvm
p403
asVtreatments
p404
(lp405
sVbatchId
p406
VdpmhLMSeHeJP8wGdo
p407
sVstartTime
p408
g12
(S'\x07\xe1\x04\x0b\x16\x14\x16\x01\xcc\xf0'
p409
tp410
Rp411
sVendTime
p412
g12
(S'\x07\xe1\x04\x0b\x16\x17\x02\x0b#\x90'
p413
tp414
Rp415
sa(dp416
V_id
p417
Vw2EK9w9hf2Ay8Yz37
p418
sVusers
p419
(lp420
VSaTXYqg24E6pH7KAc
p421
asVtreatments
p422
(lp423
sVbatchId
p424
VdpmhLMSeHeJP8wGdo
p425
sVstartTime
p426
g12
(S'\x07\xe1\x04\x0b\x16\x1e9\n\x16\x08'
p427
tp428
Rp429
sVendTime
p430
g12
(S'\x07\xe1\x04\x0b\x16\'"\x06=\xa8'
p431
tp432
Rp433
sa(dp434
V_id
p435
VEdixdF68eAbudDboc
p436
sVusers
p437
(lp438
Vkb4uSXkyYbsvTw4pj
p439
asVtreatments
p440
(lp441
sVbatchId
p442
VdpmhLMSeHeJP8wGdo
p443
sVstartTime
p444
g12
(S'\x07\xe1\x04\x0c\x0c7)\x00\xd2\xf0'
p445
tp446
Rp447
sVendTime
p448
g12
(S'\x07\xe1\x04\x0c\r\r;\x03\x01\x88'
p449
tp450
Rp451
sa(dp452
V_id
p453
VWKywZGBCyskWK7QPT
p454
sVusers
p455
(lp456
VRX9N8N6dmdssNCWr6
p457
asVtreatments
p458
(lp459
sVbatchId
p460
VdpmhLMSeHeJP8wGdo
p461
sVstartTime
p462
g12
(S'\x07\xe1\x04\r\x01.\n\x0c!x'
p463
tp464
Rp465
sVendTime
p466
g12
(S'\x07\xe1\x04\r\x010-\x0c\xdc\xf8'
p467
tp468
Rp469
sa(dp470
V_id
p471
VLThb8z2z5vZ2B2wqY
p472
sVusers
p473
(lp474
VfmBsDStFevZRa9Rkc
p475
asVtreatments
p476
(lp477
sVbatchId
p478
VdpmhLMSeHeJP8wGdo
p479
sVstartTime
p480
g12
(S'\x07\xe1\x04\r\x011\x07\x0e\x9e0'
p481
tp482
Rp483
sVendTime
p484
g12
(S'\x07\xe1\x04\r\x016\x12\r\xa0H'
p485
tp486
Rp487
sa(dp488
V_id
p489
VardZMkNuNQ8MuHQ7Y
p490
sVusers
p491
(lp492
VsjdvgdNzgau4jnYvm
p493
asVtreatments
p494
(lp495
sVbatchId
p496
VdpmhLMSeHeJP8wGdo
p497
sVstartTime
p498
g12
(S'\x07\xe1\x04\r\x012*\t\x95 '
p499
tp500
Rp501
sVendTime
p502
g12
(S'\x07\xe1\x04\r\x018\x1a\x04\x16\xe0'
p503
tp504
Rp505
sa(dp506
V_id
p507
VExbE5XnkZByYiSQb9
p508
sVusers
p509
(lp510
VsjdvgdNzgau4jnYvm
p511
asVtreatments
p512
(lp513
sVbatchId
p514
VdpmhLMSeHeJP8wGdo
p515
sVstartTime
p516
g12
(S'\x07\xe1\x04\r\x01:\x06\x0f\x03\xc0'
p517
tp518
Rp519
sVendTime
p520
g12
(S'\x07\xe1\x04\r\x02\x04\x05\x03,\x80'
p521
tp522
Rp523
sa(dp524
V_id
p525
V28b6maTrvjbs2hZWq
p526
sVusers
p527
(lp528
Vns5EJRdgjH6rx9mhF
p529
asVtreatments
p530
(lp531
sVbatchId
p532
VdpmhLMSeHeJP8wGdo
p533
sVstartTime
p534
g12
(S'\x07\xe1\x04\r\x02\r(\x00\xd2\xf0'
p535
tp536
Rp537
sVendTime
p538
g12
(S'\x07\xe1\x04\r\x02\x15(\x06MH'
p539
tp540
Rp541
sa(dp542
V_id
p543
VreseS53b2L497HRxD
p544
sVusers
p545
(lp546
VXSreo4RoaNqbKpmkK
p547
asVtreatments
p548
(lp549
sVbatchId
p550
VdpmhLMSeHeJP8wGdo
p551
sVstartTime
p552
g12
(S'\x07\xe1\x04\r\x02))\r\xa0H'
p553
tp554
Rp555
sVendTime
p556
g12
(S'\x07\xe1\x04\r\x02,\x08\x0eoP'
p557
tp558
Rp559
sa(dp560
V_id
p561
VJAqdpBdazeEwR3bCr
p562
sVusers
p563
(lp564
VXSreo4RoaNqbKpmkK
p565
asVtreatments
p566
(lp567
sVbatchId
p568
VdpmhLMSeHeJP8wGdo
p569
sVstartTime
p570
g12
(S'\x07\xe1\x04\r\x02,\x17\x0f\x1b0'
p571
tp572
Rp573
sVendTime
p574
g12
(S'\x07\xe1\x04\r\x02/\x03\x0e~\xf0'
p575
tp576
Rp577
sa(dp578
V_id
p579
V9f8wfThwRtkZPdq9e
p580
sVusers
p581
(lp582
VLpWWqJWLn8mp8gZr5
p583
asVtreatments
p584
(lp585
sVbatchId
p586
VdpmhLMSeHeJP8wGdo
p587
sVstartTime
p588
g12
(S'\x07\xe1\x04\r\x02-\x06\x0b\xf6\x80'
p589
tp590
Rp591
sVendTime
p592
g12
(S'\x07\xe1\x04\r\x020&\x01O\xf0'
p593
tp594
Rp595
sa(dp596
V_id
p597
V8P3rudwksAAW82kF6
p598
sVusers
p599
(lp600
V38pi4HxgRX27sTq4b
p601
asVtreatments
p602
(lp603
sVbatchId
p604
VdpmhLMSeHeJP8wGdo
p605
sVstartTime
p606
g12
(S'\x07\xe1\x04\r\x02-\x0c\x02\xd6\x90'
p607
tp608
Rp609
sVendTime
p610
g12
(S'\x07\xe1\x04\r\x020\x1c\n`@'
p611
tp612
Rp613
sa(dp614
V_id
p615
V6Ki9sfHD7xLd98eLj
p616
sVusers
p617
(lp618
VsjdvgdNzgau4jnYvm
p619
asVtreatments
p620
(lp621
sVbatchId
p622
VdpmhLMSeHeJP8wGdo
p623
sVstartTime
p624
g12
(S'\x07\xe1\x04\r\x02-\x1f\x0b^('
p625
tp626
Rp627
sVendTime
p628
g12
(S'\x07\xe1\x04\r\x02:\x16\x01\xc9\x08'
p629
tp630
Rp631
sa(dp632
V_id
p633
Voozr4ixqcYybTQxrh
p634
sVusers
p635
(lp636
VhP5QRovHWaETNdLb8
p637
asVtreatments
p638
(lp639
sVbatchId
p640
VdpmhLMSeHeJP8wGdo
p641
sVstartTime
p642
g12
(S'\x07\xe1\x04\r\x02/\x06\x0e{\x08'
p643
tp644
Rp645
sVendTime
p646
g12
(S'\x07\xe1\x04\r\x023&\x02\x84\x88'
p647
tp648
Rp649
sa(dp650
V_id
p651
V4feanyYcwBjRqFu7T
p652
sVusers
p653
(lp654
VWx7KNPgJxKRLSjdNT
p655
asVtreatments
p656
(lp657
sVbatchId
p658
VdpmhLMSeHeJP8wGdo
p659
sVstartTime
p660
g12
(S'\x07\xe1\x04\r\x02/:\t\x18 '
p661
tp662
Rp663
sVendTime
p664
g12
(S'\x07\xe1\x04\r\x0282\r\x13\xa8'
p665
tp666
Rp667
sa(dp668
V_id
p669
VwpD2pNw4mRnbKLbNK
p670
sVusers
p671
(lp672
Vrnrm22qTTooMxarWS
p673
asVtreatments
p674
(lp675
sVbatchId
p676
VdpmhLMSeHeJP8wGdo
p677
sVstartTime
p678
g12
(S'\x07\xe1\x04\r\x020#\x0b\x858'
p679
tp680
Rp681
sVendTime
p682
g12
(S'\x07\xe1\x04\r\x026\x03\x08\xca\x00'
p683
tp684
Rp685
sa(dp686
V_id
p687
Vm6HosYnmAQByYbJrF
p688
sVusers
p689
(lp690
VXkTHcAFJPDLDnrAZK
p691
asVtreatments
p692
(lp693
sVbatchId
p694
VdpmhLMSeHeJP8wGdo
p695
sVstartTime
p696
g12
(S'\x07\xe1\x04\r\x020)\x02F\x08'
p697
tp698
Rp699
sVendTime
p700
g12
(S"\x07\xe1\x04\r\x026'\tq\xf8"
p701
tp702
Rp703
sa(dp704
V_id
p705
VuPjsYeZ6mTFPCe4hY
p706
sVusers
p707
(lp708
VuhcLfTADo2R9rxGEw
p709
asVtreatments
p710
(lp711
sVbatchId
p712
VdpmhLMSeHeJP8wGdo
p713
sVstartTime
p714
g12
(S'\x07\xe1\x04\r\x021\x00\x06\x9bh'
p715
tp716
Rp717
sVendTime
p718
g12
(S'\x07\xe1\x04\r\x026*\r\x13\xa8'
p719
tp720
Rp721
sa(dp722
V_id
p723
VNuEPqWthzdrSn5BSr
p724
sVusers
p725
(lp726
V38pi4HxgRX27sTq4b
p727
asVtreatments
p728
(lp729
sVbatchId
p730
VdpmhLMSeHeJP8wGdo
p731
sVstartTime
p732
g12
(S'\x07\xe1\x04\r\x021\x04\x04\x0f\x10'
p733
tp734
Rp735
sVendTime
p736
g12
(S'\x07\xe1\x04\r\x03\x07\x12\x08\xa2\xf0'
p737
tp738
Rp739
sa(dp740
V_id
p741
VTzvmcMFmRDMmyeLGm
p742
sVusers
p743
(lp744
VG3KMf4dc2wirsPJnN
p745
asVtreatments
p746
(lp747
sVbatchId
p748
VdpmhLMSeHeJP8wGdo
p749
sVstartTime
p750
g12
(S'\x07\xe1\x04\r\x021\x15\x0c\xe0\xe0'
p751
tp752
Rp753
sVendTime
p754
g12
(S'\x07\xe1\x04\r\x028\x07\x077\xa8'
p755
tp756
Rp757
sa(dp758
V_id
p759
Vibtg9x5AZaMWXF4Kb
p760
sVusers
p761
(lp762
VHgc66uQw73gEt7HxW
p763
asVtreatments
p764
(lp765
sVbatchId
p766
VdpmhLMSeHeJP8wGdo
p767
sVstartTime
p768
g12
(S'\x07\xe1\x04\r\x021&\x02>8'
p769
tp770
Rp771
sVendTime
p772
g12
(S'\x07\xe1\x04\r\x029\x0c\t\x8dP'
p773
tp774
Rp775
sa(dp776
V_id
p777
V8Dvfn6pXQZ7DAagBR
p778
sVusers
p779
(lp780
V36bJR27PvovnLFb5h
p781
asVtreatments
p782
(lp783
sVbatchId
p784
VdpmhLMSeHeJP8wGdo
p785
sVstartTime
p786
g12
(S'\x07\xe1\x04\r\x021(\r2\xe8'
p787
tp788
Rp789
sVendTime
p790
g12
(S'\x07\xe1\x04\r\x0288\ra\xc8'
p791
tp792
Rp793
sa(dp794
V_id
p795
VGJBFtk5PbaYfQbwzr
p796
sVusers
p797
(lp798
VWr47saendmcHB9Nxr
p799
asVtreatments
p800
(lp801
sVbatchId
p802
VdpmhLMSeHeJP8wGdo
p803
sVstartTime
p804
g12
(S'\x07\xe1\x04\r\x022"\t\xdfX'
p805
tp806
Rp807
sVendTime
p808
g12
(S'\x07\xe1\x04\r\x027$\x06\xc6`'
p809
tp810
Rp811
sa(dp812
V_id
p813
VKYagqc38hEw2xdvtd
p814
sVusers
p815
(lp816
VBu2dqocZwxuxRHFiC
p817
asVtreatments
p818
(lp819
sVbatchId
p820
VdpmhLMSeHeJP8wGdo
p821
sVstartTime
p822
g12
(S'\x07\xe1\x04\r\x023\x00\t\xac\x90'
p823
tp824
Rp825
sVendTime
p826
g12
(S'\x07\xe1\x04\r\x029\x15\r\xa40'
p827
tp828
Rp829
sa(dp830
V_id
p831
Vsf6jsqpZMHiSiWtB8
p832
sVusers
p833
(lp834
VuPjrKvFv3fmSN7T9g
p835
asVtreatments
p836
(lp837
sVbatchId
p838
VdpmhLMSeHeJP8wGdo
p839
sVstartTime
p840
g12
(S'\x07\xe1\x04\r\x023\x14\x03\xef\xd0'
p841
tp842
Rp843
sVendTime
p844
g12
(S'\x07\xe1\x04\r\x03\x01&\tN\xd0'
p845
tp846
Rp847
sa(dp848
V_id
p849
VXaM4mSxRKHnyc2CXr
p850
sVusers
p851
(lp852
VG8RHeTr7gk5dg8HpE
p853
asVtreatments
p854
(lp855
sVbatchId
p856
VdpmhLMSeHeJP8wGdo
p857
sVstartTime
p858
g12
(S'\x07\xe1\x04\r\x0249\x05\xa5P'
p859
tp860
Rp861
sVendTime
p862
g12
(S'\x07\xe1\x04\r\x03\x08;\ruP'
p863
tp864
Rp865
sa(dp866
V_id
p867
VMR4xq6eaY4p4ZfstT
p868
sVusers
p869
(lp870
VKnD4SiTrJ29Zn8AA8
p871
asVtreatments
p872
(lp873
sVbatchId
p874
VdpmhLMSeHeJP8wGdo
p875
sVstartTime
p876
g12
(S'\x07\xe1\x04\r\x025\x06\x05\xc0\xa8'
p877
tp878
Rp879
sVendTime
p880
g12
(S'\x07\xe1\x04\r\x028\x1e\x0c\x7f8'
p881
tp882
Rp883
sa(dp884
V_id
p885
VEdsvbxtKH4p74tCCk
p886
sVusers
p887
(lp888
VBEk8WsLaW8d2KWSod
p889
asVtreatments
p890
(lp891
sVbatchId
p892
VdpmhLMSeHeJP8wGdo
p893
sVstartTime
p894
g12
(S'\x07\xe1\x04\r\x025\x0b\x0e\x15x'
p895
tp896
Rp897
sVendTime
p898
g12
(S'\x07\xe1\x04\r\x02;\x05\t\xc0\x18'
p899
tp900
Rp901
sa(dp902
V_id
p903
VeTK22RvoDAKddTx4B
p904
sVusers
p905
(lp906
VeEnScgwfzjxM9xPaW
p907
asVtreatments
p908
(lp909
sVbatchId
p910
VdpmhLMSeHeJP8wGdo
p911
sVstartTime
p912
g12
(S'\x07\xe1\x04\r\x025\x1c\n\x9a\xd8'
p913
tp914
Rp915
sVendTime
p916
g12
(S'\x07\xe1\x04\r\x03\x02\x00\x02eH'
p917
tp918
Rp919
sa(dp920
V_id
p921
V7aP5yLPEhi9bXFAcX
p922
sVusers
p923
(lp924
Vh9pz6HY3mdah8R5Jq
p925
asVtreatments
p926
(lp927
sVbatchId
p928
VdpmhLMSeHeJP8wGdo
p929
sVstartTime
p930
g12
(S'\x07\xe1\x04\r\x0259\x0f\x17H'
p931
tp932
Rp933
sVendTime
p934
g12
(S'\x07\xe1\x04\r\x03\x03\x1f\x0ck\xb0'
p935
tp936
Rp937
sa(dp938
V_id
p939
VehC66gBfJq6WTiAoK
p940
sVusers
p941
(lp942
VbRnAjiH7pr9845P67
p943
asVtreatments
p944
(lp945
sVbatchId
p946
VdpmhLMSeHeJP8wGdo
p947
sVstartTime
p948
g12
(S'\x07\xe1\x04\r\x026\x1e\n90'
p949
tp950
Rp951
sVendTime
p952
g12
(S'\x07\xe1\x04\r\x03\x02\x0e\x07\x08\xc8'
p953
tp954
Rp955
sa(dp956
V_id
p957
VxKxYurkDZEewjmoqG
p958
sVusers
p959
(lp960
Vs55W8DjwqkFgSXCi5
p961
asVtreatments
p962
(lp963
sVbatchId
p964
VdpmhLMSeHeJP8wGdo
p965
sVstartTime
p966
g12
(S"\x07\xe1\x04\r\x0287\x0b'x"
p967
tp968
Rp969
sVendTime
p970
g12
(S'\x07\xe1\x04\r\x03\x006\x01\xe8H'
p971
tp972
Rp973
sa(dp974
V_id
p975
VjEr7xbB8qNBPGsPtJ
p976
sVusers
p977
(lp978
VsjdvgdNzgau4jnYvm
p979
asVtreatments
p980
(lp981
sVbatchId
p982
VdpmhLMSeHeJP8wGdo
p983
sVstartTime
p984
g12
(S'\x07\xe1\x04\r\x02;8\x0cc\xe0'
p985
tp986
Rp987
sVendTime
p988
g12
(S'\x07\xe1\x04\r\x03\x0b\x04\x00\xe2\x90'
p989
tp990
Rp991
sa(dp992
V_id
p993
VxoJJy5GQC6rB5mabE
p994
sVusers
p995
(lp996
VhspQ9wTrnh5qynh7M
p997
asVtreatments
p998
(lp999
sVbatchId
p1000
VdpmhLMSeHeJP8wGdo
p1001
sVstartTime
p1002
g12
(S'\x07\xe1\x04\r\x03\x00\t\x02\xd6\x90'
p1003
tp1004
Rp1005
sVendTime
p1006
g12
(S'\x07\xe1\x04\r\x03\x0b\x00\t}\xb0'
p1007
tp1008
Rp1009
sa(dp1010
V_id
p1011
Vo8DQZQn8Xi63hiui3
p1012
sVusers
p1013
(lp1014
VoQAW8iMEQc5Di6PiM
p1015
asVtreatments
p1016
(lp1017
sVbatchId
p1018
VdpmhLMSeHeJP8wGdo
p1019
sVstartTime
p1020
g12
(S'\x07\xe1\x04\r\x03\x01\x1b\x01\x05\xb8'
p1021
tp1022
Rp1023
sVendTime
p1024
g12
(S'\x07\xe1\x04\r\x03\x04\x0b\x0e\x11\x90'
p1025
tp1026
Rp1027
sa(dp1028
V_id
p1029
Vk3EyMwADcdSnpBAiv
p1030
sVusers
p1031
(lp1032
VoQAW8iMEQc5Di6PiM
p1033
asVtreatments
p1034
(lp1035
sVbatchId
p1036
VdpmhLMSeHeJP8wGdo
p1037
sVstartTime
p1038
g12
(S'\x07\xe1\x04\r\x03\x04\x1e\x0b\xbb\xe8'
p1039
tp1040
Rp1041
sVendTime
p1042
g12
(S'\x07\xe1\x04\r\x03\x07\x1e\x0e\x11\x90'
p1043
tp1044
Rp1045
sa(dp1046
V_id
p1047
VhmqEcxhssaeCCbWMr
p1048
sVusers
p1049
(lp1050
VAuQwMsMPjeyaZQt7L
p1051
asVtreatments
p1052
(lp1053
sVbatchId
p1054
VdpmhLMSeHeJP8wGdo
p1055
sVstartTime
p1056
g12
(S'\x07\xe1\x04\r\x03\x06\x0b\t;H'
p1057
tp1058
Rp1059
sVendTime
p1060
g12
(S'\x07\xe1\x04\r\x03\x0e\x02\x0e\x9e0'
p1061
tp1062
Rp1063
sa(dp1064
V_id
p1065
VvumrK89KRbAZAko4E
p1066
sVusers
p1067
(lp1068
VJDissyde6usiTsbFE
p1069
asVtreatments
p1070
(lp1071
sVbatchId
p1072
VdpmhLMSeHeJP8wGdo
p1073
sVstartTime
p1074
g12
(S'\x07\xe1\x04\r\x03\t\x18\x04\x0b('
p1075
tp1076
Rp1077
sVendTime
p1078
g12
(S'\x07\xe1\x04\r\x03\x11 \ra\xc8'
p1079
tp1080
Rp1081
sa(dp1082
V_id
p1083
VpS89p55ZEu5J6R9Md
p1084
sVusers
p1085
(lp1086
Vnqy9JmQbuZFRPogJw
p1087
asVtreatments
p1088
(lp1089
sVbatchId
p1090
VdpmhLMSeHeJP8wGdo
p1091
sVstartTime
p1092
g12
(S'\x07\xe1\x04\r\x03\x11\x16\x00e\x90'
p1093
tp1094
Rp1095
sVendTime
p1096
g12
(S'\x07\xe1\x04\r\x03\x19\x06\ri\x98'
p1097
tp1098
Rp1099
sa(dp1100
V_id
p1101
Vvt47pY7Ma9p7F2c8Q
p1102
sVusers
p1103
(lp1104
VsjdvgdNzgau4jnYvm
p1105
asVtreatments
p1106
(lp1107
sVbatchId
p1108
VdpmhLMSeHeJP8wGdo
p1109
sVstartTime
p1110
g12
(S'\x07\xe1\x04\r\x03\x1c\x11\x08\xaa\xc0'
p1111
tp1112
Rp1113
sVendTime
p1114
g12
(S"\x07\xe1\x04\r\x03!'\x0c\xa2`"
p1115
tp1116
Rp1117
sa(dp1118
V_id
p1119
VQrFgto42vfmij8KDs
p1120
sVusers
p1121
(lp1122
VLp5SqSPrH2YtfcrNB
p1123
asVtreatments
p1124
(lp1125
sVbatchId
p1126
VdpmhLMSeHeJP8wGdo
p1127
sVstartTime
p1128
g12
(S'\x07\xe1\x04\r\x03!\x1b\x03 \xc8'
p1129
tp1130
Rp1131
sVendTime
p1132
g12
(S'\x07\xe1\x04\r\x03&2\x010\xb0'
p1133
tp1134
Rp1135
sa(dp1136
V_id
p1137
VvH7eeGGygX6hSTXop
p1138
sVusers
p1139
(lp1140
VqnTngmjkWFSNcWa3i
p1141
asVtreatments
p1142
(lp1143
sVbatchId
p1144
VdpmhLMSeHeJP8wGdo
p1145
sVstartTime
p1146
g12
(S'\x07\xe1\x04\r\x04\x06;\x02U\xa8'
p1147
tp1148
Rp1149
sVendTime
p1150
g12
(S'\x07\xe1\x04\r\x04\x0b0\x06.\x08'
p1151
tp1152
Rp1153
sa(dp1154
V_id
p1155
V8AvTxPJS6stSFtB7G
p1156
sVusers
p1157
(lp1158
VMqzbsNPbneyELtzkn
p1159
asVtreatments
p1160
(lp1161
sVbatchId
p1162
VdpmhLMSeHeJP8wGdo
p1163
sVstartTime
p1164
g12
(S'\x07\xe1\x04\r\x04!\x16\x08\x0e\x80'
p1165
tp1166
Rp1167
sVendTime
p1168
g12
(S'\x07\xe1\x04\r\x04&\x02\x04\xaf8'
p1169
tp1170
Rp1171
sa(dp1172
V_id
p1173
VhpLMRHteQRQTrGhLX
p1174
sVusers
p1175
(lp1176
VXwqKaBoZHTEiDWfFg
p1177
asVtreatments
p1178
(lp1179
sVbatchId
p1180
VdpmhLMSeHeJP8wGdo
p1181
sVstartTime
p1182
g12
(S'\x07\xe1\x04\r\x04*\x01\x03\tX'
p1183
tp1184
Rp1185
sVendTime
p1186
g12
(S'\x07\xe1\x04\r\x041\t\x069\xc0'
p1187
tp1188
Rp1189
sa(dp1190
V_id
p1191
Vap4iGm67FLj4dEstj
p1192
sVusers
p1193
(lp1194
VMqzbsNPbneyELtzkn
p1195
asVtreatments
p1196
(lp1197
sVbatchId
p1198
VdpmhLMSeHeJP8wGdo
p1199
sVstartTime
p1200
g12
(S'\x07\xe1\x04\r\x04+4\x08=`'
p1201
tp1202
Rp1203
sVendTime
p1204
g12
(S'\x07\xe1\x04\r\x04/\x05\n\xf8\x98'
p1205
tp1206
Rp1207
sa(dp1208
V_id
p1209
VYpdkxxN2x5wxZwgiF
p1210
sVusers
p1211
(lp1212
V4Nuz5oe9KkS3zyZ74
p1213
asVtreatments
p1214
(lp1215
sVbatchId
p1216
VdpmhLMSeHeJP8wGdo
p1217
sVstartTime
p1218
g12
(S"\x07\xe1\x04\r\x04,'\x0c\r\xf0"
p1219
tp1220
Rp1221
sVendTime
p1222
g12
(S'\x07\xe1\x04\r\x05\x00 \n`@'
p1223
tp1224
Rp1225
sa(dp1226
V_id
p1227
Vt8dKjqFM9ye9ZzCZy
p1228
sVusers
p1229
(lp1230
V2X4ZGCcrMzqXYk3GW
p1231
asVtreatments
p1232
(lp1233
sVbatchId
p1234
VdpmhLMSeHeJP8wGdo
p1235
sVstartTime
p1236
g12
(S'\x07\xe1\x04\r\x040(\x0b\xf6\x80'
p1237
tp1238
Rp1239
sVendTime
p1240
g12
(S'\x07\xe1\x04\r\x043\x15\x02\xd2\xa8'
p1241
tp1242
Rp1243
sa(dp1244
V_id
p1245
VmLjKRJFLnv7k544Kt
p1246
sVusers
p1247
(lp1248
VkWRPs7pBknAsMEkBB
p1249
asVtreatments
p1250
(lp1251
sVbatchId
p1252
VdpmhLMSeHeJP8wGdo
p1253
sVstartTime
p1254
g12
(S'\x07\xe1\x04\r\x042\x16\t\x8dP'
p1255
tp1256
Rp1257
sVendTime
p1258
g12
(S'\x07\xe1\x04\r\x047\x1a\x02"\xe0'
p1259
tp1260
Rp1261
sa(dp1262
V_id
p1263
VkcC7yDsmugwQmZWSq
p1264
sVusers
p1265
(lp1266
VMqzbsNPbneyELtzkn
p1267
asVtreatments
p1268
(lp1269
sVbatchId
p1270
VdpmhLMSeHeJP8wGdo
p1271
sVstartTime
p1272
g12
(S'\x07\xe1\x04\r\x043/\x02\xe2H'
p1273
tp1274
Rp1275
sVendTime
p1276
g12
(S'\x07\xe1\x04\r\x045.\x07f\x88'
p1277
tp1278
Rp1279
sa(dp1280
V_id
p1281
Vauivnp9XxsR8P7C9j
p1282
sVusers
p1283
(lp1284
V3iCmJz8m82nCyz7aS
p1285
asVtreatments
p1286
(lp1287
sVbatchId
p1288
VdpmhLMSeHeJP8wGdo
p1289
sVstartTime
p1290
g12
(S'\x07\xe1\x04\r\x05\x01%\x06\x97\x80'
p1291
tp1292
Rp1293
sVendTime
p1294
g12
(S'\x07\xe1\x04\r\x05\x0e&\r\xa40'
p1295
tp1296
Rp1297
sa(dp1298
V_id
p1299
VvNkpzBXDDHTFRrgRy
p1300
sVusers
p1301
(lp1302
VXwqKaBoZHTEiDWfFg
p1303
asVtreatments
p1304
(lp1305
sVbatchId
p1306
VdpmhLMSeHeJP8wGdo
p1307
sVstartTime
p1308
g12
(S'\x07\xe1\x04\r\x05\x07\x02\x02t\xe8'
p1309
tp1310
Rp1311
sVendTime
p1312
g12
(S'\x07\xe1\x04\r\x05\n-\x00\x00\x00'
p1313
tp1314
Rp1315
sa(dp1316
V_id
p1317
VPg825dWTtMZorGfJQ
p1318
sVusers
p1319
(lp1320
V8uaccRaNRhGXpk7sr
p1321
asVtreatments
p1322
(lp1323
sVbatchId
p1324
VdpmhLMSeHeJP8wGdo
p1325
sVstartTime
p1326
g12
(S'\x07\xe1\x04\r\x05\t\x00\x03\xadh'
p1327
tp1328
Rp1329
sVendTime
p1330
g12
(S'\x07\xe1\x04\r\x05\x0b \x00\x07\xd0'
p1331
tp1332
Rp1333
sa(dp1334
V_id
p1335
Vcx3wYtHXfsLpAFAiG
p1336
sVusers
p1337
(lp1338
VMqzbsNPbneyELtzkn
p1339
asVtreatments
p1340
(lp1341
sVbatchId
p1342
VdpmhLMSeHeJP8wGdo
p1343
sVstartTime
p1344
g12
(S'\x07\xe1\x04\r\x05\n\x11\r#H'
p1345
tp1346
Rp1347
sVendTime
p1348
g12
(S'\x07\xe1\x04\r\x05\x0c\r\x06\x0e\xc8'
p1349
tp1350
Rp1351
sa(dp1352
V_id
p1353
VdcEMwxPFTHrMQpazs
p1354
sVusers
p1355
(lp1356
VMqzbsNPbneyELtzkn
p1357
asVtreatments
p1358
(lp1359
sVbatchId
p1360
VdpmhLMSeHeJP8wGdo
p1361
sVstartTime
p1362
g12
(S'\x07\xe1\x04\r\x05\x0c\x17\x00\x1f@'
p1363
tp1364
Rp1365
sVendTime
p1366
g12
(S'\x07\xe1\x04\r\x05\r#\x0b\xb00'
p1367
tp1368
Rp1369
sa(dp1370
V_id
p1371
VCwmSptbMs6qTq4yp4
p1372
sVusers
p1373
(lp1374
VXwqKaBoZHTEiDWfFg
p1375
asVtreatments
p1376
(lp1377
sVbatchId
p1378
VdpmhLMSeHeJP8wGdo
p1379
sVstartTime
p1380
g12
(S'\x07\xe1\x04\r\x05\x159\x01<h'
p1381
tp1382
Rp1383
sVendTime
p1384
g12
(S'\x07\xe1\x04\r\x05\x1a\x07\n\x0e8'
p1385
tp1386
Rp1387
sa(dp1388
V_id
p1389
VZorybB4fHSgSDHLcu
p1390
sVusers
p1391
(lp1392
V3iCmJz8m82nCyz7aS
p1393
asVtreatments
p1394
(lp1395
sVbatchId
p1396
VdpmhLMSeHeJP8wGdo
p1397
sVstartTime
p1398
g12
(S'\x07\xe1\x04\r\x05\x16\x1f\ry8'
p1399
tp1400
Rp1401
sVendTime
p1402
g12
(S'\x07\xe1\x04\r\x05\x1b\x07\x08\xb2\x90'
p1403
tp1404
Rp1405
sa(dp1406
V_id
p1407
VH4QKjXNWjGuTt5xjp
p1408
sVusers
p1409
(lp1410
VMqzbsNPbneyELtzkn
p1411
asVtreatments
p1412
(lp1413
sVbatchId
p1414
VdpmhLMSeHeJP8wGdo
p1415
sVstartTime
p1416
g12
(S'\x07\xe1\x04\r\x05\x1a\x0e\x02\xdax'
p1417
tp1418
Rp1419
sVendTime
p1420
g12
(S'\x07\xe1\x04\r\x05\x1b$\nd('
p1421
tp1422
Rp1423
sa(dp1424
V_id
p1425
VaKNYeG8pyX7pYYkK7
p1426
sVusers
p1427
(lp1428
V3iCmJz8m82nCyz7aS
p1429
asVtreatments
p1430
(lp1431
sVbatchId
p1432
VdpmhLMSeHeJP8wGdo
p1433
sVstartTime
p1434
g12
(S'\x07\xe1\x04\r\x05\x1b \x03\xeb\xe8'
p1435
tp1436
Rp1437
sVendTime
p1438
g12
(S'\x07\xe1\x04\r\x05$+\x07\x81\xe0'
p1439
tp1440
Rp1441
sa(dp1442
V_id
p1443
VyDAr8iRyDmoMYoAXr
p1444
sVusers
p1445
(lp1446
VMqzbsNPbneyELtzkn
p1447
asVtreatments
p1448
(lp1449
sVbatchId
p1450
VdpmhLMSeHeJP8wGdo
p1451
sVstartTime
p1452
g12
(S'\x07\xe1\x04\r\x05\x1b-\x02U\xa8'
p1453
tp1454
Rp1455
sVendTime
p1456
g12
(S'\x07\xe1\x04\r\x05\x1c6\x07\x04\xe0'
p1457
tp1458
Rp1459
sa(dp1460
V_id
p1461
V5gP9tXKLWwcDHKYZM
p1462
sVusers
p1463
(lp1464
V3ssf4eRR4vc6vTQoo
p1465
asVtreatments
p1466
(lp1467
sVbatchId
p1468
VdpmhLMSeHeJP8wGdo
p1469
sVstartTime
p1470
g12
(S'\x07\xe1\x04\r\x05\x1d\t\x06\x8f\xb0'
p1471
tp1472
Rp1473
sVendTime
p1474
g12
(S'\x07\xe1\x04\r\x05"\x0f\x02\xa3\xc8'
p1475
tp1476
Rp1477
sa(dp1478
V_id
p1479
Vtq3dQXt4qwGug3x2q
p1480
sVusers
p1481
(lp1482
VXkTHcAFJPDLDnrAZK
p1483
asVtreatments
p1484
(lp1485
sVbatchId
p1486
VdpmhLMSeHeJP8wGdo
p1487
sVstartTime
p1488
g12
(S'\x07\xe1\x04\r\x05 -\x0e\xff\xd8'
p1489
tp1490
Rp1491
sVendTime
p1492
g12
(S"\x07\xe1\x04\r\x05'.\x01\xd4\xc0"
p1493
tp1494
Rp1495
sa(dp1496
V_id
p1497
VcMFiFyL7g735foeRr
p1498
sVusers
p1499
(lp1500
VXwqKaBoZHTEiDWfFg
p1501
asVtreatments
p1502
(lp1503
sVbatchId
p1504
VdpmhLMSeHeJP8wGdo
p1505
sVstartTime
p1506
g12
(S'\x07\xe1\x04\r\x05!\x11\x0c\x83 '
p1507
tp1508
Rp1509
sVendTime
p1510
g12
(S'\x07\xe1\x04\r\x05%\x13\x0b}h'
p1511
tp1512
Rp1513
sa(dp1514
V_id
p1515
VAqdLPwvEDheJ88otv
p1516
sVusers
p1517
(lp1518
VMqzbsNPbneyELtzkn
p1519
asVtreatments
p1520
(lp1521
sVbatchId
p1522
VdpmhLMSeHeJP8wGdo
p1523
sVstartTime
p1524
g12
(S'\x07\xe1\x04\r\x05#,\n\x93\x08'
p1525
tp1526
Rp1527
sVendTime
p1528
g12
(S'\x07\xe1\x04\r\x05%,\x06MH'
p1529
tp1530
Rp1531
sa(dp1532
V_id
p1533
V4wjA88C8MdcbHSbJP
p1534
sVusers
p1535
(lp1536
VMqzbsNPbneyELtzkn
p1537
asVtreatments
p1538
(lp1539
sVbatchId
p1540
VdpmhLMSeHeJP8wGdo
p1541
sVstartTime
p1542
g12
(S'\x07\xe1\x04\r\x05%6\x03S\x90'
p1543
tp1544
Rp1545
sVendTime
p1546
g12
(S"\x07\xe1\x04\r\x05'\x02\x0e\xcd\x10"
p1547
tp1548
Rp1549
sa(dp1550
V_id
p1551
V2NaP8JgwkLz2jFGB3
p1552
sVusers
p1553
(lp1554
VMqzbsNPbneyELtzkn
p1555
asVtreatments
p1556
(lp1557
sVbatchId
p1558
VdpmhLMSeHeJP8wGdo
p1559
sVstartTime
p1560
g12
(S"\x07\xe1\x04\r\x05')\x04YH"
p1561
tp1562
Rp1563
sVendTime
p1564
g12
(S'\x07\xe1\x04\r\x05*\x08\x01\x8a\x88'
p1565
tp1566
Rp1567
sa(dp1568
V_id
p1569
VDGaN6zRdxjiyRtro4
p1570
sVusers
p1571
(lp1572
V6bEyT9EzzmyxDjGcf
p1573
asVtreatments
p1574
(lp1575
sVbatchId
p1576
VdpmhLMSeHeJP8wGdo
p1577
sVstartTime
p1578
g12
(S'\x07\xe1\x04\r\x05(:\x04\xf9p'
p1579
tp1580
Rp1581
sVendTime
p1582
g12
(S'\x07\xe1\x04\r\x05,0\x05W0'
p1583
tp1584
Rp1585
sa(dp1586
V_id
p1587
VWFcj7ft59ZLfB8Cvm
p1588
sVusers
p1589
(lp1590
V3iCmJz8m82nCyz7aS
p1591
asVtreatments
p1592
(lp1593
sVbatchId
p1594
VdpmhLMSeHeJP8wGdo
p1595
sVstartTime
p1596
g12
(S'\x07\xe1\x04\r\x05/\x03\x0e\xbdp'
p1597
tp1598
Rp1599
sVendTime
p1600
g12
(S'\x07\xe1\x04\r\x0588\x0f\x1b0'
p1601
tp1602
Rp1603
sa(dp1604
V_id
p1605
VuT7L5pkhCRMo5pqYz
p1606
sVusers
p1607
(lp1608
V3ssf4eRR4vc6vTQoo
p1609
asVtreatments
p1610
(lp1611
sVbatchId
p1612
VdpmhLMSeHeJP8wGdo
p1613
sVstartTime
p1614
g12
(S'\x07\xe1\x04\r\x0512\x08\xb2\x90'
p1615
tp1616
Rp1617
sVendTime
p1618
g12
(S'\x07\xe1\x04\r\x058\x10\x08AH'
p1619
tp1620
Rp1621
sa(dp1622
V_id
p1623
VYpfruBkScohP67Guc
p1624
sVusers
p1625
(lp1626
VkGwgjkfvpkJHZfa3m
p1627
asVtreatments
p1628
(lp1629
sVbatchId
p1630
VdpmhLMSeHeJP8wGdo
p1631
sVstartTime
p1632
g12
(S'\x07\xe1\x04\r\x053-\r\x98x'
p1633
tp1634
Rp1635
sVendTime
p1636
g12
(S'\x07\xe1\x04\r\x05;\t\x0c\x028'
p1637
tp1638
Rp1639
sa(dp1640
V_id
p1641
V548WnM6cWaGXyxFm7
p1642
sVusers
p1643
(lp1644
VXwqKaBoZHTEiDWfFg
p1645
asVtreatments
p1646
(lp1647
sVbatchId
p1648
VdpmhLMSeHeJP8wGdo
p1649
sVstartTime
p1650
g12
(S'\x07\xe1\x04\r\x055)\x0b\x04P'
p1651
tp1652
Rp1653
sVendTime
p1654
g12
(S'\x07\xe1\x04\r\x05:\x05\x05\x01@'
p1655
tp1656
Rp1657
sa(dp1658
V_id
p1659
VaEJnfM9rQQ4qo9Bk4
p1660
sVusers
p1661
(lp1662
V3iCmJz8m82nCyz7aS
p1663
asVtreatments
p1664
(lp1665
sVbatchId
p1666
VdpmhLMSeHeJP8wGdo
p1667
sVstartTime
p1668
g12
(S'\x07\xe1\x04\r\x059\x17\x0e\x11\x90'
p1669
tp1670
Rp1671
sVendTime
p1672
g12
(S'\x07\xe1\x04\r\x06\x02\x03\x00ix'
p1673
tp1674
Rp1675
sa(dp1676
V_id
p1677
VkZExLdEuPCHhJqk4e
p1678
sVusers
p1679
(lp1680
V3ssf4eRR4vc6vTQoo
p1681
asVtreatments
p1682
(lp1683
sVbatchId
p1684
VdpmhLMSeHeJP8wGdo
p1685
sVstartTime
p1686
g12
(S'\x07\xe1\x04\r\x059(\x03\xc4\xd8'
p1687
tp1688
Rp1689
sVendTime
p1690
g12
(S'\x07\xe1\x04\r\x06\x00\x02\t\x1c\x08'
p1691
tp1692
Rp1693
sa(dp1694
V_id
p1695
VbWCECQLbefpNDdPNF
p1696
sVusers
p1697
(lp1698
V3iCmJz8m82nCyz7aS
p1699
asVtreatments
p1700
(lp1701
sVbatchId
p1702
VdpmhLMSeHeJP8wGdo
p1703
sVstartTime
p1704
g12
(S'\x07\xe1\x04\r\x06\x02\x1d\x06\\\xe8'
p1705
tp1706
Rp1707
sVendTime
p1708
g12
(S'\x07\xe1\x04\r\x06\x04$\x0c!x'
p1709
tp1710
Rp1711
sa(dp1712
V_id
p1713
VtG7tBWRrNnLXAw89i
p1714
sVusers
p1715
(lp1716
VoYXjNc66iq6qeddAw
p1717
asVtreatments
p1718
(lp1719
sVbatchId
p1720
VdpmhLMSeHeJP8wGdo
p1721
sVstartTime
p1722
g12
(S'\x07\xe1\x04\r\x06\x041\x07jp'
p1723
tp1724
Rp1725
sVendTime
p1726
g12
(S"\x07\xe1\x04\r\x06\t\x18\r'0"
p1727
tp1728
Rp1729
sa(dp1730
V_id
p1731
VJtMWLYu3Zhdms2Z6d
p1732
sVusers
p1733
(lp1734
VLPcAsukrFaGjLrBMq
p1735
asVtreatments
p1736
(lp1737
sVbatchId
p1738
VdpmhLMSeHeJP8wGdo
p1739
sVstartTime
p1740
g12
(S'\x07\xe1\x04\r\x070+\x0b\xe6\xe0'
p1741
tp1742
Rp1743
sVendTime
p1744
g12
(S'\x07\xe1\x04\r\x077\x17\x03@\x08'
p1745
tp1746
Rp1747
sa(dp1748
V_id
p1749
VfoW9SbuFQ9vQQHw8h
p1750
sVusers
p1751
(lp1752
V4Nuz5oe9KkS3zyZ74
p1753
asVtreatments
p1754
(lp1755
sVbatchId
p1756
VdpmhLMSeHeJP8wGdo
p1757
sVstartTime
p1758
g12
(S'\x07\xe1\x04\r\x076\x13\x0388'
p1759
tp1760
Rp1761
sVendTime
p1762
g12
(S'\x07\xe1\x04\r\x08\x02\x0f\x0e\xbdp'
p1763
tp1764
Rp1765
sa(dp1766
V_id
p1767
VytgtiQFsKJJ5XKT33
p1768
sVusers
p1769
(lp1770
VwPraL5bnmRBQweuRJ
p1771
asVtreatments
p1772
(lp1773
sVbatchId
p1774
VdpmhLMSeHeJP8wGdo
p1775
sVstartTime
p1776
g12
(S'\x07\xe1\x04\r\x0f0\x08\t\x1c\x08'
p1777
tp1778
Rp1779
sVendTime
p1780
g12
(S'\x07\xe1\x04\r\x0f48\x0c)H'
p1781
tp1782
Rp1783
sa(dp1784
V_id
p1785
VW5fhD2CszcFgkjPbN
p1786
sVusers
p1787
(lp1788
VXybe53HnFXdS5DHkg
p1789
asVtreatments
p1790
(lp1791
sVbatchId
p1792
VdpmhLMSeHeJP8wGdo
p1793
sVstartTime
p1794
g12
(S'\x07\xe1\x04\r\x13!\x1b\x06\xcaH'
p1795
tp1796
Rp1797
sVendTime
p1798
g12
(S'\x07\xe1\x04\r\x13,\x0e\x08\xf1\x10'
p1799
tp1800
Rp1801
sa(dp1802
V_id
p1803
VaJFffsfy4m8KJyT5j
p1804
sVusers
p1805
(lp1806
VjcmBgy2ENTQD3kX54
p1807
asVtreatments
p1808
(lp1809
sVbatchId
p1810
VdpmhLMSeHeJP8wGdo
p1811
sVstartTime
p1812
g12
(S'\x07\xe1\x04\r\x15;9\x06\x8b\xc8'
p1813
tp1814
Rp1815
sVendTime
p1816
g12
(S'\x07\xe1\x04\r\x16\x0f6\r\xcf('
p1817
tp1818
Rp1819
sa(dp1820
V_id
p1821
VA2b8woZTuGPRxxapR
p1822
sVusers
p1823
(lp1824
Vkb4uSXkyYbsvTw4pj
p1825
asVtreatments
p1826
(lp1827
sVbatchId
p1828
VdpmhLMSeHeJP8wGdo
p1829
sVstartTime
p1830
g12
(S'\x07\xe1\x04\r\x17\x1d0\x0c\xe4\xc8'
p1831
tp1832
Rp1833
sVendTime
p1834
g12
(S'\x07\xe1\x04\x0e\x02\x10\r\x03\x11('
p1835
tp1836
Rp1837
sa(dp1838
V_id
p1839
VmeeYiQQoP7pmYePDA
p1840
sVusers
p1841
(lp1842
VuPjrKvFv3fmSN7T9g
p1843
asVtreatments
p1844
(lp1845
sVbatchId
p1846
VdpmhLMSeHeJP8wGdo
p1847
sVstartTime
p1848
g12
(S'\x07\xe1\x04\r\x1772\x01<h'
p1849
tp1850
Rp1851
sVendTime
p1852
g12
(S'\x07\xe1\x04\x0e\x00\x02+\x06\xba\xa8'
p1853
tp1854
Rp1855
sa(dp1856
V_id
p1857
VDp7Fx4gx6RADo95qY
p1858
sVusers
p1859
(lp1860
VkGwgjkfvpkJHZfa3m
p1861
asVtreatments
p1862
(lp1863
sVbatchId
p1864
VdpmhLMSeHeJP8wGdo
p1865
sVstartTime
p1866
g12
(S'\x07\xe1\x04\x0e\x00\n\x02\x02\xe60'
p1867
tp1868
Rp1869
sVendTime
p1870
g12
(S'\x07\xe1\x04\x0e\x00\x0e\x04\r\xe2\xb0'
p1871
tp1872
Rp1873
sa(dp1874
V_id
p1875
V78NnEmHFx2WTZfmhF
p1876
sVusers
p1877
(lp1878
Vif5tKyhvrK4A6cCwT
p1879
asVtreatments
p1880
(lp1881
sVbatchId
p1882
VdpmhLMSeHeJP8wGdo
p1883
sVstartTime
p1884
g12
(S'\x07\xe1\x04\x0e\x00\x1b\x01\rR('
p1885
tp1886
Rp1887
sVendTime
p1888
g12
(S'\x07\xe1\x04\x0e\x00!3\x02\x1b\x10'
p1889
tp1890
Rp1891
sa(dp1892
V_id
p1893
VWYBGMhgAfgqjQAEWq
p1894
sVusers
p1895
(lp1896
VS7ufA6Bfff2hAjDvQ
p1897
asVtreatments
p1898
(lp1899
sVbatchId
p1900
VdpmhLMSeHeJP8wGdo
p1901
sVstartTime
p1902
g12
(S'\x07\xe1\x04\x0e\x01\x16\x15\x07}\xf8'
p1903
tp1904
Rp1905
sVendTime
p1906
g12
(S'\x07\xe1\x04\x0e\x01\x1b \r\xa40'
p1907
tp1908
Rp1909
sa(dp1910
V_id
p1911
VrcacdqtM4epX3QX5Z
p1912
sVusers
p1913
(lp1914
VfSuyeG9ADshvTF9nL
p1915
asVtreatments
p1916
(lp1917
sVbatchId
p1918
VdpmhLMSeHeJP8wGdo
p1919
sVstartTime
p1920
g12
(S'\x07\xe1\x04\x0e\x01-6\x0f\x0b\x90'
p1921
tp1922
Rp1923
sVendTime
p1924
g12
(S'\x07\xe1\x04\x0e\x0139\x05\xdf\xe8'
p1925
tp1926
Rp1927
sa(dp1928
V_id
p1929
VjHWKMzx5Ehy445ekC
p1930
sVusers
p1931
(lp1932
Vkb4uSXkyYbsvTw4pj
p1933
asVtreatments
p1934
(lp1935
sVbatchId
p1936
VdpmhLMSeHeJP8wGdo
p1937
sVstartTime
p1938
g12
(S'\x07\xe1\x04\x0e\x02\x11\x07\x08\x978'
p1939
tp1940
Rp1941
sVendTime
p1942
g12
(S'\x07\xe1\x04\x0e\x02 \x04\x07Z\xd0'
p1943
tp1944
Rp1945
sa(dp1946
V_id
p1947
VbPWiBTNoupcfpDenN
p1948
sVusers
p1949
(lp1950
VBxwkbr2gyazHnbX4v
p1951
asVtreatments
p1952
(lp1953
sVbatchId
p1954
VdpmhLMSeHeJP8wGdo
p1955
sVstartTime
p1956
g12
(S'\x07\xe1\x04\x0e\x04+\n\n\x02\x80'
p1957
tp1958
Rp1959
sVendTime
p1960
g12
(S'\x07\xe1\x04\x0e\x040\x03\x03\xadh'
p1961
tp1962
Rp1963
sa.