(lp0
(dp1
VreadyToProceed
p2
I00
sVtsGroupId
p3
Vundefined
p4
sVisExperienced
p5
I0
sVsec_rnd_stg_now
p6
I0
sVsec_rnd_now
p7
I0
sVquiz
p8
(dp9
Vfailed
p10
I00
sVpassed
p11
I01
sVtriesLeft
p12
I3
ssVsec_type_now
p13
VsubmitHIT
p14
sVblock_now
p15
I1
sVtsBatchId
p16
VdpmhLMSeHeJP8wGdo
p17
sVcohortIds
p18
(lp19
sVtsAsstId
p20
V4vhAJuu5qSNh5297G
p21
sVtreatments
p22
(lp23
Vnofeedback
p24
aVfeedback
p25
asVmtWorkerId
p26
VA36TE52PSYAAD6
p27
sVmtHitId
p28
V351S7I5UG9WMPWJPWEY6TU2XRFZJNV
p29
sVtreatment_now
p30
Vfeedback
p31
sVsec_now
p32
VsubmitHIT
p33
sVcohort_now
p34
I6
sVbonusEarnings
p35
F1.4000000000000001
sVHITStatus
p36
(dp37
VgamesPlayed
p38
I6
sVgamesConsummated
p39
I3
ssVcompletedExperiment
p40
I01
sVmeteorUserId
p41
VAP8vcD9dXt36haXn8
p42
sVbreakdownEarnings
p43
(dp44
Vexperiment1
p45
I0
sVexperiment2
p46
F0.8
sVhit
p47
F0.1
sVsurvey
p48
F0.2
sVquiz
p49
F0.4
ssV_id
p50
VXdvjpWFQFKivs2w32
p51
sVmtAssignmentId
p52
V3EJPLAJKEMG75AGV5LKD4W0IT6ZZ6H
p53
sa(dp54
VreadyToProceed
p55
I00
sVtsGroupId
p56
Vundefined
p57
sVisExperienced
p58
I0
sVsec_rnd_stg_now
p59
I0
sVsec_rnd_now
p60
I0
sVquiz
p61
(dp62
Vfailed
p63
I00
sVpassed
p64
I00
sVtriesLeft
p65
I3
ssVsec_type_now
p66
Vinstructions
p67
sVblock_now
p68
I0
sVtsBatchId
p69
VdpmhLMSeHeJP8wGdo
p70
sVcohortIds
p71
(lp72
sVtsAsstId
p73
VduCmFwxZyzb3CTB5q
p74
sVtreatments
p75
(lp76
Vnofeedback
p77
aVfeedback
p78
asVmtWorkerId
p79
VA9Z25VKRSKF8O
p80
sVmtHitId
p81
V351S7I5UG9WMPWJPWEY6TU2XRFZJNV
p82
sVtreatment_now
p83
Vnofeedback
p84
sVsec_now
p85
Vinstructions
p86
sVcohort_now
p87
I0
sVbonusEarnings
p88
I0
sVcompletedExperiment
p89
I00
sVmeteorUserId
p90
Vfd2nMFvz6stryYpWe
p91
sV_id
p92
Vwv3cNxCwhB32zjfER
p93
sVmtAssignmentId
p94
V3KAKFY4PGU2MD143MFYTXYL8N2W3IJ
p95
sa(dp96
VreadyToProceed
p97
I00
sVtsGroupId
p98
Vundefined
p99
sVisExperienced
p100
I0
sVsec_rnd_stg_now
p101
I0
sVsec_rnd_now
p102
I0
sVquiz
p103
(dp104
Vfailed
p105
I00
sVpassed
p106
I01
sVtriesLeft
p107
I3
ssVsec_type_now
p108
VsubmitHIT
p109
sVblock_now
p110
I1
sVtsBatchId
p111
VdpmhLMSeHeJP8wGdo
p112
sVcohortIds
p113
(lp114
sVtsAsstId
p115
VYxns2vG4TDsZFemF4
p116
sVtreatments
p117
(lp118
Vfeedback
p119
aVnofeedback
p120
asVmtWorkerId
p121
VAQJWO4YPR3LUQ
p122
sVmtHitId
p123
V3PKVGQTFIHKXZJ6GBLGQC1MV5GXRYL
p124
sVtreatment_now
p125
Vnofeedback
p126
sVsec_now
p127
VsubmitHIT
p128
sVcohort_now
p129
I6
sVbonusEarnings
p130
F1.5000000000000002
sVHITStatus
p131
(dp132
VgamesPlayed
p133
I6
sVgamesConsummated
p134
I3
ssVcompletedExperiment
p135
I01
sVmeteorUserId
p136
VEaXw7z2Y2wtsvHRBM
p137
sVbreakdownEarnings
p138
(dp139
Vexperiment1
p140
F0.9000000000000001
sVexperiment2
p141
I0
sVhit
p142
F0.1
sVsurvey
p143
F0.2
sVquiz
p144
F0.4
ssV_id
p145
Vo87GbTucJR3ZviGmM
p146
sVmtAssignmentId
p147
V3SEPORI8WNZ8SCSYVY1PK124PPPZA7
p148
sa(dp149
VreadyToProceed
p150
I00
sVtsGroupId
p151
Vundefined
p152
sVisExperienced
p153
I0
sVsec_rnd_stg_now
p154
I0
sVsec_rnd_now
p155
I0
sVquiz
p156
(dp157
Vfailed
p158
I00
sVpassed
p159
I01
sVtriesLeft
p160
I3
ssVsec_type_now
p161
VsubmitHIT
p162
sVblock_now
p163
I1
sVtsBatchId
p164
VdpmhLMSeHeJP8wGdo
p165
sVcohortIds
p166
(lp167
sVtsAsstId
p168
VtkXwf7WEpsnK7jDLx
p169
sVtreatments
p170
(lp171
Vfeedback
p172
aVnofeedback
p173
asVmtWorkerId
p174
VA296HTKGCX7FY9
p175
sVmtHitId
p176
V351S7I5UG9WMPWJPWEY6TU2XRFZJNV
p177
sVtreatment_now
p178
Vnofeedback
p179
sVsec_now
p180
VsubmitHIT
p181
sVcohort_now
p182
I9
sVbonusEarnings
p183
F1.2
sVHITStatus
p184
(dp185
VgamesPlayed
p186
I6
sVgamesConsummated
p187
I3
ssVcompletedExperiment
p188
I01
sVmeteorUserId
p189
VkAaJW7zGCLBBfkh2X
p190
sVbreakdownEarnings
p191
(dp192
Vexperiment1
p193
F0.6000000000000001
sVexperiment2
p194
I0
sVhit
p195
F0.1
sVsurvey
p196
F0.2
sVquiz
p197
F0.4
ssV_id
p198
VryngX2kzabuSLDeuK
p199
sVmtAssignmentId
p200
V3LS2AMNW5FQOGOL8ILNUU3A5938OQ1
p201
sa(dp202
VreadyToProceed
p203
I00
sVtsGroupId
p204
Vundefined
p205
sVisExperienced
p206
I0
sVsec_rnd_stg_now
p207
I0
sVsec_rnd_now
p208
I0
sVquiz
p209
(dp210
Vfailed
p211
I00
sVpassed
p212
I00
sVtriesLeft
p213
I3
ssVsec_type_now
p214
Vinstructions
p215
sVblock_now
p216
I0
sVtsBatchId
p217
VdpmhLMSeHeJP8wGdo
p218
sVcohortIds
p219
(lp220
sVtsAsstId
p221
V8FPJCCngq24BudnF5
p222
sVtreatments
p223
(lp224
Vnofeedback
p225
aVfeedback
p226
asVmtWorkerId
p227
VA37QCZD5MFB2TF
p228
sVmtHitId
p229
V3PKVGQTFIHKXZJ6GBLGQC1MV5GXRYL
p230
sVtreatment_now
p231
Vnofeedback
p232
sVsec_now
p233
Vinstructions
p234
sVcohort_now
p235
I0
sVbonusEarnings
p236
I0
sVcompletedExperiment
p237
I00
sVmeteorUserId
p238
VncTpfDERtZN9XLPwB
p239
sV_id
p240
VcNcnYf2qa5tNaBYri
p241
sVmtAssignmentId
p242
V3NPI0JQDAO5JT4P1EPU4O8QI3F3TP1
p243
sa(dp244
VreadyToProceed
p245
I00
sVtsGroupId
p246
Vundefined
p247
sVisExperienced
p248
I0
sVsec_rnd_stg_now
p249
I0
sVsec_rnd_now
p250
I0
sVquiz
p251
(dp252
Vfailed
p253
I00
sVpassed
p254
I00
sVtriesLeft
p255
I3
ssVsec_type_now
p256
Vinstructions
p257
sVblock_now
p258
I0
sVtsBatchId
p259
VdpmhLMSeHeJP8wGdo
p260
sVcohortIds
p261
(lp262
sVtsAsstId
p263
V7PAsgSLe72SBnWGYo
p264
sVtreatments
p265
(lp266
Vnofeedback
p267
aVfeedback
p268
asVmtWorkerId
p269
VA154X03NKVZZL1
p270
sVmtHitId
p271
V3IWA71V4TIGFDVIME1RQISOQ7NOX6M
p272
sVtreatment_now
p273
Vnofeedback
p274
sVsec_now
p275
Vinstructions
p276
sVcohort_now
p277
I0
sVbonusEarnings
p278
I0
sVcompletedExperiment
p279
I00
sVmeteorUserId
p280
VvZHazFyBGaY4nMGLR
p281
sV_id
p282
VvZXdsHg8naEkYS5t8
p283
sVmtAssignmentId
p284
V374TNBHA8BV0A2PAO8WSWU87ND7QYE
p285
sa(dp286
VreadyToProceed
p287
I00
sVtsGroupId
p288
Vundefined
p289
sVisExperienced
p290
I0
sVsec_rnd_stg_now
p291
I0
sVsec_rnd_now
p292
I0
sVquiz
p293
(dp294
Vfailed
p295
I00
sVpassed
p296
I01
sVtriesLeft
p297
I3
ssVsec_type_now
p298
VsubmitHIT
p299
sVblock_now
p300
I1
sVtsBatchId
p301
VdpmhLMSeHeJP8wGdo
p302
sVcohortIds
p303
(lp304
sVtsAsstId
p305
VAN5Z4BCwXauNoh7t7
p306
sVtreatments
p307
(lp308
Vnofeedback
p309
aVfeedback
p310
asVmtWorkerId
p311
VA2HM35CWB7IIFM
p312
sVmtHitId
p313
V3IWA71V4TIGFDVIME1RQISOQ7NOX6M
p314
sVtreatment_now
p315
Vfeedback
p316
sVsec_now
p317
VsubmitHIT
p318
sVcohort_now
p319
I1
sVbonusEarnings
p320
F1.2
sVHITStatus
p321
(dp322
VgamesPlayed
p323
I6
sVgamesConsummated
p324
I3
ssVcompletedExperiment
p325
I01
sVmeteorUserId
p326
Vr6D7Ym94xLPbWSFvE
p327
sVbreakdownEarnings
p328
(dp329
Vexperiment1
p330
I0
sVexperiment2
p331
F0.6000000000000001
sVhit
p332
F0.1
sVsurvey
p333
F0.2
sVquiz
p334
F0.4
ssV_id
p335
VEdDo4ypEgvpgNkyHC
p336
sVmtAssignmentId
p337
V33FOTY3KEMLZQV4O71OOY28GCDYC1Y
p338
sa(dp339
VreadyToProceed
p340
I00
sVtsGroupId
p341
Vundefined
p342
sVisExperienced
p343
I0
sVsec_rnd_stg_now
p344
I0
sVsec_rnd_now
p345
I0
sVquiz
p346
(dp347
Vfailed
p348
I00
sVpassed
p349
I00
sVtriesLeft
p350
I3
ssVsec_type_now
p351
Vinstructions
p352
sVblock_now
p353
I0
sVtsBatchId
p354
VdpmhLMSeHeJP8wGdo
p355
sVcohortIds
p356
(lp357
sVtsAsstId
p358
VYFNgr9fS8tqv4vyuF
p359
sVtreatments
p360
(lp361
Vfeedback
p362
aVnofeedback
p363
asVmtWorkerId
p364
VANVAFB99K5RKP
p365
sVmtHitId
p366
V35O6H0UNLSGIZ7DJSE2KZD2B0UJJ5P
p367
sVtreatment_now
p368
Vfeedback
p369
sVsec_now
p370
Vinstructions
p371
sVcohort_now
p372
I0
sVbonusEarnings
p373
I0
sVcompletedExperiment
p374
I00
sVmeteorUserId
p375
VPewnBgxYn38XJAKZ4
p376
sV_id
p377
Vc92fz7nTwGQDarwrE
p378
sVmtAssignmentId
p379
V3RKNTXVS3MYSPF49A5BZQ5PVOUO4A2
p380
sa(dp381
VreadyToProceed
p382
I00
sVtsGroupId
p383
Vundefined
p384
sVisExperienced
p385
I0
sVsec_rnd_stg_now
p386
I0
sVsec_rnd_now
p387
I0
sVquiz
p388
(dp389
Vfailed
p390
I00
sVpassed
p391
I01
sVtriesLeft
p392
I3
ssVsec_type_now
p393
VsubmitHIT
p394
sVblock_now
p395
I1
sVtsBatchId
p396
VdpmhLMSeHeJP8wGdo
p397
sVcohortIds
p398
(lp399
sVtsAsstId
p400
VTjo8ykTrp7PHimkfv
p401
sVtreatments
p402
(lp403
Vnofeedback
p404
aVfeedback
p405
asVmtWorkerId
p406
VA16QZSBYXE5VY8
p407
sVmtHitId
p408
V35O6H0UNLSGIZ7DJSE2KZD2B0UJJ5P
p409
sVtreatment_now
p410
Vfeedback
p411
sVsec_now
p412
VsubmitHIT
p413
sVcohort_now
p414
I5
sVbonusEarnings
p415
F1.4000000000000001
sVHITStatus
p416
(dp417
VgamesPlayed
p418
I6
sVgamesConsummated
p419
I3
ssVcompletedExperiment
p420
I01
sVmeteorUserId
p421
VzCAJyqF8ARDSSJrDX
p422
sVbreakdownEarnings
p423
(dp424
Vexperiment1
p425
I0
sVexperiment2
p426
F0.8
sVhit
p427
F0.1
sVsurvey
p428
F0.2
sVquiz
p429
F0.4
ssV_id
p430
VZZKkdsDmLreEWfT8P
p431
sVmtAssignmentId
p432
V33SA9F9TRXU7OU450GJ4HGYDT2LEWT
p433
sa(dp434
VreadyToProceed
p435
I00
sVtsGroupId
p436
Vundefined
p437
sVisExperienced
p438
I0
sVsec_rnd_stg_now
p439
I0
sVsec_rnd_now
p440
I0
sVquiz
p441
(dp442
Vfailed
p443
I00
sVpassed
p444
I01
sVtriesLeft
p445
I2
ssVsec_type_now
p446
VsubmitHIT
p447
sVblock_now
p448
I1
sVtsBatchId
p449
VdpmhLMSeHeJP8wGdo
p450
sVcohortIds
p451
(lp452
sVtsAsstId
p453
VY9muWtjJFtTWXoC29
p454
sVtreatments
p455
(lp456
Vnofeedback
p457
aVfeedback
p458
asVmtWorkerId
p459
VA3F0NFNLOLFJT0
p460
sVmtHitId
p461
V35O6H0UNLSGIZ7DJSE2KZD2B0UJJ5P
p462
sVtreatment_now
p463
Vfeedback
p464
sVsec_now
p465
VsubmitHIT
p466
sVcohort_now
p467
I2
sVbonusEarnings
p468
F1.5000000000000002
sVHITStatus
p469
(dp470
VgamesPlayed
p471
I6
sVgamesConsummated
p472
I3
ssVcompletedExperiment
p473
I01
sVmeteorUserId
p474
Vw2dCCQFuHrf9Bkodc
p475
sVbreakdownEarnings
p476
(dp477
Vexperiment1
p478
I0
sVexperiment2
p479
F0.9000000000000001
sVhit
p480
F0.1
sVsurvey
p481
F0.2
sVquiz
p482
F0.4
ssV_id
p483
VGH5A9jazoNpM6jCRK
p484
sVmtAssignmentId
p485
V33TIN5LC04AUI38O76L6AZIIDD59YD
p486
sa(dp487
VreadyToProceed
p488
I00
sVtsGroupId
p489
Vundefined
p490
sVisExperienced
p491
I0
sVsec_rnd_stg_now
p492
I0
sVsec_rnd_now
p493
I0
sVquiz
p494
(dp495
Vfailed
p496
I00
sVpassed
p497
I01
sVtriesLeft
p498
I3
ssVsec_type_now
p499
VsubmitHIT
p500
sVblock_now
p501
I1
sVtsBatchId
p502
VdpmhLMSeHeJP8wGdo
p503
sVcohortIds
p504
(lp505
sVtsAsstId
p506
VJheqXta5tJeqERrEC
p507
sVtreatments
p508
(lp509
Vnofeedback
p510
aVnofeedback
p511
asVmtWorkerId
p512
VA1MJHGH55K3O0
p513
sVmtHitId
p514
V3PKVGQTFIHKXZJ6GBLGQC1MV5GXRYL
p515
sVtreatment_now
p516
Vnofeedback
p517
sVsec_now
p518
VsubmitHIT
p519
sVcohort_now
p520
I25
sVbonusEarnings
p521
F0.35
sVcompletedExperiment
p522
I01
sVmeteorUserId
p523
VSaTXYqg24E6pH7KAc
p524
sVbreakdownEarnings
p525
(dp526
Vexperiment1
p527
I0
sVexperiment2
p528
I0
sVhit
p529
F0.1
sVsurvey
p530
F0.1
sVquiz
p531
F0.25
ssV_id
p532
Vht6nkRcLdx5RqE3Yt
p533
sVmtAssignmentId
p534
V3LEIZ60CDJZUNTIT3SNPO6RKJ77Z9S
p535
sa(dp536
VreadyToProceed
p537
I00
sVtsGroupId
p538
Vundefined
p539
sVisExperienced
p540
I0
sVsec_rnd_stg_now
p541
I0
sVsec_rnd_now
p542
I0
sVquiz
p543
(dp544
Vfailed
p545
I00
sVpassed
p546
I01
sVtriesLeft
p547
I3
ssVsec_type_now
p548
VsubmitHIT
p549
sVblock_now
p550
I1
sVtsBatchId
p551
VdpmhLMSeHeJP8wGdo
p552
sVcohortIds
p553
(lp554
sVtsAsstId
p555
V9TSPXrqYgHpgTqGGr
p556
sVtreatments
p557
(lp558
Vnofeedback
p559
aVfeedback
p560
asVmtWorkerId
p561
VA1MYLQQL8BBOYT
p562
sVmtHitId
p563
V3P458N04Q1HRVUZLRZFNSF7ESSV2X4
p564
sVtreatment_now
p565
Vfeedback
p566
sVsec_now
p567
VsubmitHIT
p568
sVcohort_now
p569
I9
sVbonusEarnings
p570
F1.1500000000000001
sVcompletedExperiment
p571
I01
sVmeteorUserId
p572
VYEwfheDvxFD5REcmG
p573
sVbreakdownEarnings
p574
(dp575
Vexperiment1
p576
I0
sVexperiment2
p577
F0.8
sVhit
p578
F0.1
sVsurvey
p579
F0.1
sVquiz
p580
F0.25
ssV_id
p581
VCkBmGNQ2nmiubkQri
p582
sVmtAssignmentId
p583
V3NQL1CS15R8SFALRA7Q22H7F46KYVG
p584
sa(dp585
VreadyToProceed
p586
I00
sVtsGroupId
p587
Vundefined
p588
sVisExperienced
p589
I0
sVsec_rnd_stg_now
p590
I0
sVsec_rnd_now
p591
I0
sVquiz
p592
(dp593
Vfailed
p594
I00
sVpassed
p595
I01
sVtriesLeft
p596
I1
ssVsec_type_now
p597
VsubmitHIT
p598
sVblock_now
p599
I1
sVtsBatchId
p600
VdpmhLMSeHeJP8wGdo
p601
sVcohortIds
p602
(lp603
sVtsAsstId
p604
V4WfGEidA8jGico2Ar
p605
sVtreatments
p606
(lp607
Vnofeedback
p608
aVnofeedback
p609
asVmtWorkerId
p610
VA1W4Q0E00VP6VD
p611
sVmtHitId
p612
V3WRBLBQ2GR89DY1HN2B5L5E4S4FG06
p613
sVtreatment_now
p614
Vnofeedback
p615
sVsec_now
p616
VsubmitHIT
p617
sVcohort_now
p618
I23
sVbonusEarnings
p619
F0.35
sVcompletedExperiment
p620
I01
sVmeteorUserId
p621
VRmoXgMC3RJ3hrRpY3
p622
sVbreakdownEarnings
p623
(dp624
Vexperiment1
p625
I0
sVexperiment2
p626
I0
sVhit
p627
F0.1
sVsurvey
p628
F0.1
sVquiz
p629
F0.25
ssV_id
p630
VxdmCKzZDs5iidR5un
p631
sVmtAssignmentId
p632
V3NG53N1RLVJ0VKXDBRJ9XCUVP3GP88
p633
sa(dp634
VreadyToProceed
p635
I00
sVtsGroupId
p636
Vundefined
p637
sVisExperienced
p638
I0
sVsec_rnd_stg_now
p639
I0
sVsec_rnd_now
p640
I0
sVquiz
p641
(dp642
Vfailed
p643
I00
sVpassed
p644
I01
sVtriesLeft
p645
I3
ssVsec_type_now
p646
VsubmitHIT
p647
sVblock_now
p648
I1
sVtsBatchId
p649
VdpmhLMSeHeJP8wGdo
p650
sVcohortIds
p651
(lp652
sVtsAsstId
p653
VpaZ8xDeT6gJQNJgJb
p654
sVtreatments
p655
(lp656
Vnofeedback
p657
aVnofeedback
p658
asVmtWorkerId
p659
VA3SKEW89V5S0DI
p660
sVmtHitId
p661
V3P458N04Q1HRVUZLRZFNSF7ESSV2X4
p662
sVtreatment_now
p663
Vnofeedback
p664
sVsec_now
p665
VsubmitHIT
p666
sVcohort_now
p667
I14
sVbonusEarnings
p668
F0.35
sVcompletedExperiment
p669
I01
sVmeteorUserId
p670
Vfzn5XL42LHTcCNYJP
p671
sVbreakdownEarnings
p672
(dp673
Vexperiment1
p674
I0
sVexperiment2
p675
I0
sVhit
p676
F0.1
sVsurvey
p677
F0.1
sVquiz
p678
F0.25
ssV_id
p679
VdkdWKt963Cd2Px3C5
p680
sVmtAssignmentId
p681
V3EJJQNKU9R5E08ELRNH4FKN9T4UHR7
p682
sa(dp683
VreadyToProceed
p684
I00
sVtsGroupId
p685
Vundefined
p686
sVisExperienced
p687
I0
sVsec_rnd_stg_now
p688
I0
sVsec_rnd_now
p689
I0
sVquiz
p690
(dp691
Vfailed
p692
I00
sVpassed
p693
I01
sVtriesLeft
p694
I3
ssVsec_type_now
p695
VsubmitHIT
p696
sVblock_now
p697
I1
sVtsBatchId
p698
VdpmhLMSeHeJP8wGdo
p699
sVcohortIds
p700
(lp701
sVtsAsstId
p702
V4fyMAgA3REHiHhkbq
p703
sVtreatments
p704
(lp705
Vfeedback
p706
aVnofeedback
p707
asVmtWorkerId
p708
VA3HESOWHVBQOEI
p709
sVmtHitId
p710
V3MYASTQBG7BUP7WP2A4CUQ2PSGCDQ6
p711
sVtreatment_now
p712
Vnofeedback
p713
sVsec_now
p714
VsubmitHIT
p715
sVcohort_now
p716
I16
sVbonusEarnings
p717
F0.65
sVcompletedExperiment
p718
I01
sVmeteorUserId
p719
VGcso2BbAN4WtgwLRD
p720
sVbreakdownEarnings
p721
(dp722
Vexperiment1
p723
F0.30000000000000004
sVexperiment2
p724
I0
sVhit
p725
F0.1
sVsurvey
p726
F0.1
sVquiz
p727
F0.25
ssV_id
p728
VNu5FpHgddnd4SFf5P
p729
sVmtAssignmentId
p730
V34S9DKFK73PF75CI8G4BS0D2I3JNYP
p731
sa(dp732
VreadyToProceed
p733
I00
sVtsGroupId
p734
Vundefined
p735
sVisExperienced
p736
I2
sVsec_rnd_stg_now
p737
I0
sVsec_rnd_now
p738
I0
sVquiz
p739
(dp740
Vfailed
p741
I00
sVpassed
p742
I00
sVtriesLeft
p743
I3
ssVsec_type_now
p744
VsubmitHIT
p745
sVblock_now
p746
I1
sVtsBatchId
p747
VdpmhLMSeHeJP8wGdo
p748
sVcohortIds
p749
(lp750
sVtsAsstId
p751
VmN8zfAEenkZHvAqud
p752
sVtreatments
p753
(lp754
Vnofeedback
p755
aVnofeedback
p756
asVmtWorkerId
p757
VA5TI9UQEPLNWI
p758
sVmtHitId
p759
V3E6L1VR4XWMYD9R1E7L4CLOJ4SG6FD
p760
sVtreatment_now
p761
Vnofeedback
p762
sVsec_now
p763
VsubmitHIT
p764
sVcohort_now
p765
I19
sVbonusEarnings
p766
I0
sVcompletedExperiment
p767
I01
sVmeteorUserId
p768
VNnrLFYb9Rw7duzNK6
p769
sVbreakdownEarnings
p770
(dp771
Vexperiment1
p772
I0
sVexperiment2
p773
I0
sVhit
p774
F0.1
sVsurvey
p775
I0
sVquiz
p776
I0
ssV_id
p777
VhketiS4psoRXWcrr2
p778
sVmtAssignmentId
p779
V3QHK8ZVMIMIT6XGMMBAC7XBCSZ1BLW
p780
sa(dp781
VreadyToProceed
p782
I00
sVtsGroupId
p783
Vundefined
p784
sVisExperienced
p785
I0
sVsec_rnd_stg_now
p786
I0
sVsec_rnd_now
p787
I0
sVquiz
p788
(dp789
Vfailed
p790
I01
sVpassed
p791
I00
sVtriesLeft
p792
I0
ssVsec_type_now
p793
VsubmitHIT
p794
sVblock_now
p795
I0
sVtsBatchId
p796
VdpmhLMSeHeJP8wGdo
p797
sVcohortIds
p798
(lp799
sVtsAsstId
p800
VqoTNsPdqvurAcjGZP
p801
sVtreatments
p802
(lp803
Vnofeedback
p804
aVfeedback
p805
asVmtWorkerId
p806
VAMYURTQIMAC8T
p807
sVmtHitId
p808
V3E6L1VR4XWMYD9R1E7L4CLOJ4SG6FD
p809
sVtreatment_now
p810
Vnofeedback
p811
sVsec_now
p812
VsubmitHIT
p813
sVcohort_now
p814
I0
sVbonusEarnings
p815
I0
sVcompletedExperiment
p816
I00
sVmeteorUserId
p817
VZnrZwpdDKicNEdb6D
p818
sVbreakdownEarnings
p819
(dp820
Vexperiment1
p821
I0
sVexperiment2
p822
I0
sVhit
p823
F0.1
sVsurvey
p824
I0
sVquiz
p825
I0
ssV_id
p826
VtD8yq7FyNwCuRPd8e
p827
sVmtAssignmentId
p828
V3TPZPLC3M0CEUNR7ZAOD6VMK9HP3PV
p829
sa(dp830
VreadyToProceed
p831
I00
sVtsGroupId
p832
Vundefined
p833
sVisExperienced
p834
I0
sVsec_rnd_stg_now
p835
I0
sVsec_rnd_now
p836
I0
sVquiz
p837
(dp838
Vfailed
p839
I00
sVpassed
p840
I01
sVtriesLeft
p841
I2
ssVsec_type_now
p842
VsubmitHIT
p843
sVblock_now
p844
I1
sVtsBatchId
p845
VdpmhLMSeHeJP8wGdo
p846
sVcohortIds
p847
(lp848
sVtsAsstId
p849
Vo8CWnQyv9viwTGS9u
p850
sVtreatments
p851
(lp852
Vnofeedback
p853
aVfeedback
p854
asVmtWorkerId
p855
VAA7ASGQEOMKEZ
p856
sVmtHitId
p857
V3MYASTQBG7BUP7WP2A4CUQ2PSGCDQ6
p858
sVtreatment_now
p859
Vfeedback
p860
sVsec_now
p861
VsubmitHIT
p862
sVcohort_now
p863
I18
sVbonusEarnings
p864
F1.2500000000000002
sVcompletedExperiment
p865
I01
sVmeteorUserId
p866
Vh75S9sjJJ5FuFZrnt
p867
sVbreakdownEarnings
p868
(dp869
Vexperiment1
p870
I0
sVexperiment2
p871
F0.9000000000000001
sVhit
p872
F0.1
sVsurvey
p873
F0.1
sVquiz
p874
F0.25
ssV_id
p875
VWgxvWDwAP3AFhcpss
p876
sVmtAssignmentId
p877
V3X66WABAJWI8HAY8WRYQCM8S8Q2G34
p878
sa(dp879
VreadyToProceed
p880
I00
sVtsGroupId
p881
Vundefined
p882
sVisExperienced
p883
I0
sVsec_rnd_stg_now
p884
I0
sVsec_rnd_now
p885
I0
sVquiz
p886
(dp887
Vfailed
p888
I00
sVpassed
p889
I01
sVtriesLeft
p890
I3
ssVsec_type_now
p891
VsubmitHIT
p892
sVblock_now
p893
I1
sVtsBatchId
p894
VdpmhLMSeHeJP8wGdo
p895
sVcohortIds
p896
(lp897
sVtsAsstId
p898
VuAczmzL3LKna8FAHk
p899
sVtreatments
p900
(lp901
Vnofeedback
p902
aVfeedback
p903
asVmtWorkerId
p904
VA4J4GGMKJ68L0
p905
sVmtHitId
p906
V35JDMRECC4984OGBV9AK6UG8M5DGEG
p907
sVtreatment_now
p908
Vfeedback
p909
sVsec_now
p910
VsubmitHIT
p911
sVcohort_now
p912
I19
sVbonusEarnings
p913
F0.75
sVcompletedExperiment
p914
I01
sVmeteorUserId
p915
VR7yQJzocsJJCtCnAh
p916
sVbreakdownEarnings
p917
(dp918
Vexperiment1
p919
I0
sVexperiment2
p920
F0.4
sVhit
p921
F0.1
sVsurvey
p922
F0.1
sVquiz
p923
F0.25
ssV_id
p924
VRucLYg8Kb8FDFejc3
p925
sVmtAssignmentId
p926
V3PW9OPU9PQKMSDCMA8ZIMPZU0NI12D
p927
sa(dp928
VreadyToProceed
p929
I00
sVtsGroupId
p930
Vundefined
p931
sVisExperienced
p932
I0
sVsec_rnd_stg_now
p933
I0
sVsec_rnd_now
p934
I0
sVquiz
p935
(dp936
Vfailed
p937
I00
sVpassed
p938
I00
sVtriesLeft
p939
I3
ssVsec_type_now
p940
Vinstructions
p941
sVblock_now
p942
I0
sVtsBatchId
p943
VdpmhLMSeHeJP8wGdo
p944
sVcohortIds
p945
(lp946
sVtsAsstId
p947
V8hnw7c3Zi88NR8EJq
p948
sVtreatments
p949
(lp950
Vnofeedback
p951
aVfeedback
p952
asVmtWorkerId
p953
VA1RJ2LORL5PJHS
p954
sVmtHitId
p955
V3ZQX1VYFTD5FN0NI6P1SJTTO3IFO8A
p956
sVtreatment_now
p957
Vnofeedback
p958
sVsec_now
p959
Vinstructions
p960
sVcohort_now
p961
I0
sVbonusEarnings
p962
I0
sVcompletedExperiment
p963
I00
sVmeteorUserId
p964
VJXK4aZjiBXHMv4oip
p965
sV_id
p966
VtkwqfwSkg3MgSLA6J
p967
sVmtAssignmentId
p968
V39OWYR0EPKR3JDZ1ASLYKV4TGG8FYT
p969
sa(dp970
VreadyToProceed
p971
I00
sVtsGroupId
p972
Vundefined
p973
sVisExperienced
p974
I0
sVsec_rnd_stg_now
p975
I0
sVsec_rnd_now
p976
I0
sVquiz
p977
(dp978
Vfailed
p979
I00
sVpassed
p980
I00
sVtriesLeft
p981
I3
ssVsec_type_now
p982
Vquiz
p983
sVblock_now
p984
I0
sVtsBatchId
p985
VdpmhLMSeHeJP8wGdo
p986
sVcohortIds
p987
(lp988
sVtsAsstId
p989
V4tdDYAfGKbCkAdkqr
p990
sVtreatments
p991
(lp992
Vnofeedback
p993
aVfeedback
p994
asVmtWorkerId
p995
VA3EBUBRYCKB6AF
p996
sVmtHitId
p997
V3H781YYV6TIC9T2HF99R5DVXDTUETL
p998
sVtreatment_now
p999
Vnofeedback
p1000
sVsec_now
p1001
Vquiz
p1002
sVcohort_now
p1003
I0
sVbonusEarnings
p1004
I0
sVcompletedExperiment
p1005
I00
sVmeteorUserId
p1006
VFFXW36645aCcpuKnf
p1007
sV_id
p1008
VFEt8Tda4wfB6gpYHS
p1009
sVmtAssignmentId
p1010
V3018Q3ZVOIQZQL67LH7CYY05GDGAR9
p1011
sa(dp1012
VreadyToProceed
p1013
I00
sVtsGroupId
p1014
Vundefined
p1015
sVisExperienced
p1016
I0
sVsec_rnd_stg_now
p1017
I0
sVsec_rnd_now
p1018
I0
sVquiz
p1019
(dp1020
Vfailed
p1021
I00
sVpassed
p1022
I01
sVtriesLeft
p1023
I2
ssVsec_type_now
p1024
VsubmitHIT
p1025
sVblock_now
p1026
I1
sVtsBatchId
p1027
VdpmhLMSeHeJP8wGdo
p1028
sVcohortIds
p1029
(lp1030
I31
aI29
asVtsAsstId
p1031
VXrPcYfPoayzH59P4v
p1032
sVtreatments
p1033
(lp1034
Vnofeedback
p1035
aVfeedback
p1036
asVmtWorkerId
p1037
VA21SIPO89DP66I
p1038
sVmtHitId
p1039
V3H781YYV6TIC9T2HF99R5DVXDTUETL
p1040
sVtreatment_now
p1041
Vfeedback
p1042
sVsec_now
p1043
VsubmitHIT
p1044
sVcohort_now
p1045
I29
sVbonusEarnings
p1046
I2
sVHITStatus
p1047
(dp1048
VgamesPlayed
p1049
I6
sVgamesConsummated
p1050
I6
ssVcompletedExperiment
p1051
I01
sVmeteorUserId
p1052
Vns5EJRdgjH6rx9mhF
p1053
sVbreakdownEarnings
p1054
(dp1055
Vexperiment1
p1056
F0.9000000000000001
sVexperiment2
p1057
F0.7000000000000001
sVhit
p1058
F0.1
sVsurvey
p1059
F0.15
sVquiz
p1060
F0.25
ssV_id
p1061
V7jX7nnCrS2Zaom88y
p1062
sVmtAssignmentId
p1063
V3WZ36BJEV3GHPAORVKC3TOLTMGXTBZ
p1064
sa(dp1065
VreadyToProceed
p1066
I00
sVtsGroupId
p1067
Vundefined
p1068
sVisExperienced
p1069
I0
sVsec_rnd_stg_now
p1070
I0
sVsec_rnd_now
p1071
I0
sVquiz
p1072
(dp1073
Vfailed
p1074
I00
sVpassed
p1075
I01
sVtriesLeft
p1076
I3
ssVsec_type_now
p1077
VsubmitHIT
p1078
sVblock_now
p1079
I1
sVtsBatchId
p1080
VdpmhLMSeHeJP8wGdo
p1081
sVcohortIds
p1082
(lp1083
I27
aI25
asVtsAsstId
p1084
V2rdHxGb4fHs9sMkaq
p1085
sVtreatments
p1086
(lp1087
Vnofeedback
p1088
aVfeedback
p1089
asVmtWorkerId
p1090
VA3UUH3632AI3ZX
p1091
sVmtHitId
p1092
V3ZQX1VYFTD5FN0NI6P1SJTTO3IFO8A
p1093
sVtreatment_now
p1094
Vfeedback
p1095
sVsec_now
p1096
VsubmitHIT
p1097
sVcohort_now
p1098
I25
sVbonusEarnings
p1099
I2
sVHITStatus
p1100
(dp1101
VgamesPlayed
p1102
I6
sVgamesConsummated
p1103
I6
ssVcompletedExperiment
p1104
I01
sVmeteorUserId
p1105
VRX9N8N6dmdssNCWr6
p1106
sVbreakdownEarnings
p1107
(dp1108
Vexperiment1
p1109
F0.9000000000000001
sVexperiment2
p1110
F0.7000000000000001
sVhit
p1111
F0.1
sVsurvey
p1112
F0.15
sVquiz
p1113
F0.25
ssV_id
p1114
VgwGsBXXDqaLxenkig
p1115
sVmtAssignmentId
p1116
V3NVC2EB65QZ831J8QXKWJMFWDQ33Y8
p1117
sa(dp1118
VreadyToProceed
p1119
I00
sVtsGroupId
p1120
Vundefined
p1121
sVisExperienced
p1122
I0
sVsec_rnd_stg_now
p1123
I0
sVsec_rnd_now
p1124
I0
sVquiz
p1125
(dp1126
Vfailed
p1127
I00
sVpassed
p1128
I01
sVtriesLeft
p1129
I2
ssVsec_type_now
p1130
VsubmitHIT
p1131
sVblock_now
p1132
I1
sVtsBatchId
p1133
VdpmhLMSeHeJP8wGdo
p1134
sVcohortIds
p1135
(lp1136
I28
aI26
asVtsAsstId
p1137
Vn4sRJdKrSMbKrcxEa
p1138
sVtreatments
p1139
(lp1140
Vnofeedback
p1141
aVfeedback
p1142
asVmtWorkerId
p1143
VA15NPTZ0JH7TB9
p1144
sVmtHitId
p1145
V3H781YYV6TIC9T2HF99R5DVXDTUETL
p1146
sVtreatment_now
p1147
Vfeedback
p1148
sVsec_now
p1149
VsubmitHIT
p1150
sVcohort_now
p1151
I26
sVbonusEarnings
p1152
F0.7000000000000001
sVHITStatus
p1153
(dp1154
VgamesPlayed
p1155
I6
sVgamesConsummated
p1156
I6
ssVcompletedExperiment
p1157
I01
sVmeteorUserId
p1158
VfmBsDStFevZRa9Rkc
p1159
sVbreakdownEarnings
p1160
(dp1161
Vexperiment1
p1162
I0
sVexperiment2
p1163
F0.30000000000000004
sVhit
p1164
F0.1
sVsurvey
p1165
F0.15
sVquiz
p1166
F0.25
ssV_id
p1167
VfvEwtLBohuQqx283D
p1168
sVmtAssignmentId
p1169
V3R9WASFE2ZG3O3966ENHY2DVMACFZK
p1170
sa(dp1171
VreadyToProceed
p1172
I00
sVtsGroupId
p1173
Vundefined
p1174
sVisExperienced
p1175
I0
sVsec_rnd_stg_now
p1176
I0
sVsec_rnd_now
p1177
I0
sVquiz
p1178
(dp1179
Vfailed
p1180
I00
sVpassed
p1181
I00
sVtriesLeft
p1182
I3
ssVsec_type_now
p1183
Vinstructions
p1184
sVblock_now
p1185
I0
sVtsBatchId
p1186
VdpmhLMSeHeJP8wGdo
p1187
sVcohortIds
p1188
(lp1189
sVtsAsstId
p1190
VcwrqTdGbNjweB5wmB
p1191
sVtreatments
p1192
(lp1193
Vfeedback
p1194
aVnofeedback
p1195
asVmtWorkerId
p1196
VA1NM7ZPZ3NH412
p1197
sVmtHitId
p1198
V3ZQX1VYFTD5FN0NI6P1SJTTO3IFO8A
p1199
sVtreatment_now
p1200
Vfeedback
p1201
sVsec_now
p1202
Vinstructions
p1203
sVcohort_now
p1204
I0
sVbonusEarnings
p1205
I0
sVcompletedExperiment
p1206
I00
sVmeteorUserId
p1207
VDGtJNkcr3bDtp8yTi
p1208
sV_id
p1209
VFiGFFnimnJntoosyC
p1210
sVmtAssignmentId
p1211
V3M1CVSFP605ZEKR782ICT8Q0KREAQ8
p1212
sa(dp1213
VreadyToProceed
p1214
I00
sVtsGroupId
p1215
Vundefined
p1216
sVisExperienced
p1217
I0
sVsec_rnd_stg_now
p1218
I0
sVsec_rnd_now
p1219
I0
sVquiz
p1220
(dp1221
Vfailed
p1222
I00
sVpassed
p1223
I01
sVtriesLeft
p1224
I3
ssVsec_type_now
p1225
VsubmitHIT
p1226
sVblock_now
p1227
I1
sVtsBatchId
p1228
VdpmhLMSeHeJP8wGdo
p1229
sVcohortIds
p1230
(lp1231
I61
aI65
asVtsAsstId
p1232
VAcJFBeCTEomyEJ6ez
p1233
sVtreatments
p1234
(lp1235
Vfeedback
p1236
aVnofeedback
p1237
asVmtWorkerId
p1238
VA27MJOV91GA8R3
p1239
sVmtHitId
p1240
V3YLPJ8OXX8D1Y8E8VDYBLU4CD254X9
p1241
sVtreatment_now
p1242
Vnofeedback
p1243
sVsec_now
p1244
VsubmitHIT
p1245
sVcohort_now
p1246
I65
sVbonusEarnings
p1247
F1.6
sVHITStatus
p1248
(dp1249
VgamesPlayed
p1250
I6
sVgamesConsummated
p1251
I6
ssVcompletedExperiment
p1252
I01
sVmeteorUserId
p1253
VLp5SqSPrH2YtfcrNB
p1254
sVbreakdownEarnings
p1255
(dp1256
Vexperiment1
p1257
F0.6000000000000001
sVexperiment2
p1258
F0.6000000000000001
sVhit
p1259
F0.1
sVsurvey
p1260
F0.15
sVquiz
p1261
F0.25
ssV_id
p1262
VXz9Dm2kouSNt935Z7
p1263
sVmtAssignmentId
p1264
V3UNH76FOCS59PNRIWFPBFLO2DIPMYE
p1265
sa(dp1266
VreadyToProceed
p1267
I00
sVtsGroupId
p1268
Vundefined
p1269
sVisExperienced
p1270
I0
sVsec_rnd_stg_now
p1271
I0
sVsec_rnd_now
p1272
I0
sVquiz
p1273
(dp1274
Vfailed
p1275
I00
sVpassed
p1276
I01
sVtriesLeft
p1277
I3
ssVsec_type_now
p1278
VsubmitHIT
p1279
sVblock_now
p1280
I1
sVtsBatchId
p1281
VdpmhLMSeHeJP8wGdo
p1282
sVcohortIds
p1283
(lp1284
I39
aI45
asVtsAsstId
p1285
VyFN8k3YmjjxRNqdu3
p1286
sVtreatments
p1287
(lp1288
Vnofeedback
p1289
aVnofeedback
p1290
asVmtWorkerId
p1291
VA3SWVCOJPJM7KQ
p1292
sVmtHitId
p1293
V3YLPJ8OXX8D1Y8E8VDYBLU4CD254X9
p1294
sVtreatment_now
p1295
Vnofeedback
p1296
sVsec_now
p1297
VsubmitHIT
p1298
sVcohort_now
p1299
I45
sVbonusEarnings
p1300
F1.9
sVHITStatus
p1301
(dp1302
VgamesPlayed
p1303
I6
sVgamesConsummated
p1304
I6
ssVcompletedExperiment
p1305
I01
sVmeteorUserId
p1306
Vrnrm22qTTooMxarWS
p1307
sVbreakdownEarnings
p1308
(dp1309
Vexperiment1
p1310
F0.8
sVexperiment2
p1311
F0.7
sVhit
p1312
F0.1
sVsurvey
p1313
F0.15
sVquiz
p1314
F0.25
ssV_id
p1315
VLfnpcbYw2QEvGsS5F
p1316
sVmtAssignmentId
p1317
V3GNA64GUZE428EFQD6RVLXAESEIQ5P
p1318
sa(dp1319
VreadyToProceed
p1320
I00
sVtsGroupId
p1321
Vundefined
p1322
sVisExperienced
p1323
I0
sVsec_rnd_stg_now
p1324
I0
sVsec_rnd_now
p1325
I0
sVquiz
p1326
(dp1327
Vfailed
p1328
I00
sVpassed
p1329
I01
sVtriesLeft
p1330
I2
ssVsec_type_now
p1331
VsubmitHIT
p1332
sVblock_now
p1333
I1
sVtsBatchId
p1334
VdpmhLMSeHeJP8wGdo
p1335
sVcohortIds
p1336
(lp1337
I42
aI45
asVtsAsstId
p1338
VdE46ikumjXofC3Grm
p1339
sVtreatments
p1340
(lp1341
Vnofeedback
p1342
aVfeedback
p1343
asVmtWorkerId
p1344
VA22847MKXI8ZYQ
p1345
sVmtHitId
p1346
V3GVPRXWRPHU1R07WYPWHLW17GRR7IW
p1347
sVtreatment_now
p1348
Vfeedback
p1349
sVsec_now
p1350
VsubmitHIT
p1351
sVcohort_now
p1352
I45
sVbonusEarnings
p1353
F1.1
sVHITStatus
p1354
(dp1355
VgamesPlayed
p1356
I6
sVgamesConsummated
p1357
I5
ssVcompletedExperiment
p1358
I01
sVmeteorUserId
p1359
VG3KMf4dc2wirsPJnN
p1360
sVbreakdownEarnings
p1361
(dp1362
Vexperiment1
p1363
F0.4
sVexperiment2
p1364
F0.30000000000000004
sVhit
p1365
F0.1
sVsurvey
p1366
F0.15
sVquiz
p1367
F0.25
ssV_id
p1368
VLZNQPGdG8YrzemTqJ
p1369
sVmtAssignmentId
p1370
V3JBT3HLQF82FFGY0KHJMAWRZOH4PZ4
p1371
sa(dp1372
VreadyToProceed
p1373
I00
sVtsGroupId
p1374
Vundefined
p1375
sVisExperienced
p1376
I0
sVsec_rnd_stg_now
p1377
I0
sVsec_rnd_now
p1378
I0
sVquiz
p1379
(dp1380
Vfailed
p1381
I00
sVpassed
p1382
I00
sVtriesLeft
p1383
I3
ssVsec_type_now
p1384
Vinstructions
p1385
sVblock_now
p1386
I0
sVtsBatchId
p1387
VdpmhLMSeHeJP8wGdo
p1388
sVcohortIds
p1389
(lp1390
sVtsAsstId
p1391
VFe9mqA4GJjHruWSiy
p1392
sVtreatments
p1393
(lp1394
Vfeedback
p1395
aVnofeedback
p1396
asVmtWorkerId
p1397
VA2BA9Y6VGW6WS1
p1398
sVmtHitId
p1399
V3YLPJ8OXX8D1Y8E8VDYBLU4CD254X9
p1400
sVtreatment_now
p1401
Vfeedback
p1402
sVsec_now
p1403
Vinstructions
p1404
sVcohort_now
p1405
I0
sVbonusEarnings
p1406
I0
sVcompletedExperiment
p1407
I00
sVmeteorUserId
p1408
VuroXikNeyFFosChdR
p1409
sV_id
p1410
V22pgMeuzefmEpkXEd
p1411
sVmtAssignmentId
p1412
V33M4IA01QG1BMYE0WRZQI6B3HZUXR7
p1413
sa(dp1414
VreadyToProceed
p1415
I00
sVtsGroupId
p1416
Vundefined
p1417
sVisExperienced
p1418
I0
sVsec_rnd_stg_now
p1419
I0
sVsec_rnd_now
p1420
I0
sVquiz
p1421
(dp1422
Vfailed
p1423
I00
sVpassed
p1424
I01
sVtriesLeft
p1425
I3
ssVsec_type_now
p1426
VsubmitHIT
p1427
sVblock_now
p1428
I1
sVtsBatchId
p1429
VdpmhLMSeHeJP8wGdo
p1430
sVcohortIds
p1431
(lp1432
I62
aI66
asVtsAsstId
p1433
VF59Xo2jJ4bqdmgL2q
p1434
sVtreatments
p1435
(lp1436
Vfeedback
p1437
aVnofeedback
p1438
asVmtWorkerId
p1439
VA1WK3G97IIQ3OJ
p1440
sVmtHitId
p1441
V3GS542CVJVNTTV0A62B7AJO86V959W
p1442
sVtreatment_now
p1443
Vnofeedback
p1444
sVsec_now
p1445
VsubmitHIT
p1446
sVcohort_now
p1447
I66
sVbonusEarnings
p1448
F0.7000000000000001
sVHITStatus
p1449
(dp1450
VgamesPlayed
p1451
I4
sVgamesConsummated
p1452
I2
ssVcompletedExperiment
p1453
I01
sVmeteorUserId
p1454
VqnTngmjkWFSNcWa3i
p1455
sVbreakdownEarnings
p1456
(dp1457
Vexperiment1
p1458
F0.30000000000000004
sVexperiment2
p1459
I0
sVhit
p1460
F0.1
sVsurvey
p1461
F0.15
sVquiz
p1462
F0.25
ssV_id
p1463
VeYMyJEmfQvXrPStFy
p1464
sVmtAssignmentId
p1465
V3OF2M9AATGOE4P1K7PEEEF50U7YKZY
p1466
sa(dp1467
VreadyToProceed
p1468
I00
sVtsGroupId
p1469
Vundefined
p1470
sVisExperienced
p1471
I0
sVsec_rnd_stg_now
p1472
I0
sVsec_rnd_now
p1473
I0
sVquiz
p1474
(dp1475
Vfailed
p1476
I00
sVpassed
p1477
I01
sVtriesLeft
p1478
I3
ssVsec_type_now
p1479
VsubmitHIT
p1480
sVblock_now
p1481
I1
sVtsBatchId
p1482
VdpmhLMSeHeJP8wGdo
p1483
sVcohortIds
p1484
(lp1485
I38
aI39
asVtsAsstId
p1486
VL27BFxPxH3G8N5T3j
p1487
sVtreatments
p1488
(lp1489
Vnofeedback
p1490
aVfeedback
p1491
asVmtWorkerId
p1492
VAJL536DIQQTGO
p1493
sVmtHitId
p1494
V3XQ4XW3OD9CJZDDMXP90T7QME972S3
p1495
sVtreatment_now
p1496
Vfeedback
p1497
sVsec_now
p1498
VsubmitHIT
p1499
sVcohort_now
p1500
I39
sVbonusEarnings
p1501
I2
sVHITStatus
p1502
(dp1503
VgamesPlayed
p1504
I6
sVgamesConsummated
p1505
I6
ssVcompletedExperiment
p1506
I01
sVmeteorUserId
p1507
VWx7KNPgJxKRLSjdNT
p1508
sVbreakdownEarnings
p1509
(dp1510
Vexperiment1
p1511
F0.7000000000000001
sVexperiment2
p1512
F0.9000000000000001
sVhit
p1513
F0.1
sVsurvey
p1514
F0.15
sVquiz
p1515
F0.25
ssV_id
p1516
VxarkLuJFMpspvh9tB
p1517
sVmtAssignmentId
p1518
V3DHE4R9OCWBJWS2PSRKLTC302HIG2J
p1519
sa(dp1520
VreadyToProceed
p1521
I00
sVtsGroupId
p1522
Vundefined
p1523
sVisExperienced
p1524
I0
sVsec_rnd_stg_now
p1525
I0
sVsec_rnd_now
p1526
I0
sVquiz
p1527
(dp1528
Vfailed
p1529
I00
sVpassed
p1530
I01
sVtriesLeft
p1531
I3
ssVsec_type_now
p1532
VsubmitHIT
p1533
sVblock_now
p1534
I1
sVtsBatchId
p1535
VdpmhLMSeHeJP8wGdo
p1536
sVcohortIds
p1537
(lp1538
I34
aI47
asVtsAsstId
p1539
VTNtBdhDmcrti2Cn7D
p1540
sVtreatments
p1541
(lp1542
Vfeedback
p1543
aVnofeedback
p1544
asVmtWorkerId
p1545
VAOWW3URQNRJ6U
p1546
sVmtHitId
p1547
V3GS542CVJVNTTV0A62B7AJO86V959W
p1548
sVtreatment_now
p1549
Vnofeedback
p1550
sVsec_now
p1551
VsubmitHIT
p1552
sVcohort_now
p1553
I47
sVbonusEarnings
p1554
F1.3
sVHITStatus
p1555
(dp1556
VgamesPlayed
p1557
I6
sVgamesConsummated
p1558
I6
ssVcompletedExperiment
p1559
I01
sVmeteorUserId
p1560
VuhcLfTADo2R9rxGEw
p1561
sVbreakdownEarnings
p1562
(dp1563
Vexperiment1
p1564
F0.6000000000000001
sVexperiment2
p1565
F0.30000000000000004
sVhit
p1566
F0.1
sVsurvey
p1567
F0.15
sVquiz
p1568
F0.25
ssV_id
p1569
VAdd2mPgAFsHfxJJin
p1570
sVmtAssignmentId
p1571
V3QIYRE09Y3HIHZ1FWRX2ED2SBNQN1H
p1572
sa(dp1573
VreadyToProceed
p1574
I00
sVtsGroupId
p1575
Vundefined
p1576
sVisExperienced
p1577
I0
sVsec_rnd_stg_now
p1578
I0
sVsec_rnd_now
p1579
I0
sVquiz
p1580
(dp1581
Vfailed
p1582
I00
sVpassed
p1583
I00
sVtriesLeft
p1584
I3
ssVsec_type_now
p1585
Vinstructions
p1586
sVblock_now
p1587
I0
sVtsBatchId
p1588
VdpmhLMSeHeJP8wGdo
p1589
sVcohortIds
p1590
(lp1591
sVtsAsstId
p1592
VCuyJ2dGbQ8xM3Hz7y
p1593
sVtreatments
p1594
(lp1595
Vfeedback
p1596
aVnofeedback
p1597
asVmtWorkerId
p1598
VA3T61LJ1WNOL6Z
p1599
sVmtHitId
p1600
V3GVPRXWRPHU1R07WYPWHLW17GRR7IW
p1601
sVtreatment_now
p1602
Vfeedback
p1603
sVsec_now
p1604
Vinstructions
p1605
sVcohort_now
p1606
I0
sVbonusEarnings
p1607
I0
sVcompletedExperiment
p1608
I00
sVmeteorUserId
p1609
VZFpRqNKGFakWx6bx5
p1610
sV_id
p1611
VFDz75j5qyPnCTqkeK
p1612
sVmtAssignmentId
p1613
V3TEM0PF1Q5X9OYPKBEFZ437OSRJ0DA
p1614
sa(dp1615
VreadyToProceed
p1616
I00
sVtsGroupId
p1617
Vundefined
p1618
sVisExperienced
p1619
I0
sVsec_rnd_stg_now
p1620
I0
sVsec_rnd_now
p1621
I0
sVquiz
p1622
(dp1623
Vfailed
p1624
I00
sVpassed
p1625
I01
sVtriesLeft
p1626
I2
ssVsec_type_now
p1627
VsubmitHIT
p1628
sVblock_now
p1629
I1
sVtsBatchId
p1630
VdpmhLMSeHeJP8wGdo
p1631
sVcohortIds
p1632
(lp1633
I95
aI97
asVtsAsstId
p1634
VrqtwNyQDLAEJfAhxv
p1635
sVtreatments
p1636
(lp1637
Vfeedback
p1638
aVnofeedback
p1639
asVmtWorkerId
p1640
VA1CE2XPYCDRHVZ
p1641
sVmtHitId
p1642
V3GVPRXWRPHU1R07WYPWHLW17GRR7IW
p1643
sVtreatment_now
p1644
Vnofeedback
p1645
sVsec_now
p1646
VsubmitHIT
p1647
sVcohort_now
p1648
I97
sVbonusEarnings
p1649
F1.5
sVHITStatus
p1650
(dp1651
VgamesPlayed
p1652
I6
sVgamesConsummated
p1653
I6
ssVcompletedExperiment
p1654
I01
sVmeteorUserId
p1655
VoYXjNc66iq6qeddAw
p1656
sVbreakdownEarnings
p1657
(dp1658
Vexperiment1
p1659
F0.4
sVexperiment2
p1660
F0.7
sVhit
p1661
F0.1
sVsurvey
p1662
F0.15
sVquiz
p1663
F0.25
ssV_id
p1664
VwhdszxvamDzpautSe
p1665
sVmtAssignmentId
p1666
V3UWN2HHPUY5IBJ099ACMAEP11N3SN6
p1667
sa(dp1668
VreadyToProceed
p1669
I00
sVtsGroupId
p1670
Vundefined
p1671
sVisExperienced
p1672
I0
sVsec_rnd_stg_now
p1673
I0
sVsec_rnd_now
p1674
I0
sVquiz
p1675
(dp1676
Vfailed
p1677
I00
sVpassed
p1678
I01
sVtriesLeft
p1679
I3
ssVsec_type_now
p1680
VsubmitHIT
p1681
sVblock_now
p1682
I1
sVtsBatchId
p1683
VdpmhLMSeHeJP8wGdo
p1684
sVcohortIds
p1685
(lp1686
I37
aI50
asVtsAsstId
p1687
VmzZrEEmtHXoaxbCZM
p1688
sVtreatments
p1689
(lp1690
Vfeedback
p1691
aVnofeedback
p1692
asVmtWorkerId
p1693
VAK467M5VTG7N4
p1694
sVmtHitId
p1695
V37OPIVELUU3JE7UAZAQGVB2IHMIAHX
p1696
sVtreatment_now
p1697
Vnofeedback
p1698
sVsec_now
p1699
VsubmitHIT
p1700
sVcohort_now
p1701
I50
sVbonusEarnings
p1702
F2.2
sVHITStatus
p1703
(dp1704
VgamesPlayed
p1705
I6
sVgamesConsummated
p1706
I6
ssVcompletedExperiment
p1707
I01
sVmeteorUserId
p1708
V36bJR27PvovnLFb5h
p1709
sVbreakdownEarnings
p1710
(dp1711
Vexperiment1
p1712
F0.9000000000000001
sVexperiment2
p1713
F0.9000000000000001
sVhit
p1714
F0.1
sVsurvey
p1715
F0.15
sVquiz
p1716
F0.25
ssV_id
p1717
VeAehrFKsNfmvc7L5Y
p1718
sVmtAssignmentId
p1719
V37Z929RLG98G6W5T66YYJDVTQ5PST7
p1720
sa(dp1721
VreadyToProceed
p1722
I00
sVtsGroupId
p1723
Vundefined
p1724
sVisExperienced
p1725
I0
sVsec_rnd_stg_now
p1726
I0
sVsec_rnd_now
p1727
I0
sVquiz
p1728
(dp1729
Vfailed
p1730
I00
sVpassed
p1731
I01
sVtriesLeft
p1732
I3
ssVsec_type_now
p1733
VsubmitHIT
p1734
sVblock_now
p1735
I1
sVtsBatchId
p1736
VdpmhLMSeHeJP8wGdo
p1737
sVcohortIds
p1738
(lp1739
I43
aI40
asVtsAsstId
p1740
VoWQX3jHP7RyAidS3H
p1741
sVtreatments
p1742
(lp1743
Vnofeedback
p1744
aVfeedback
p1745
asVmtWorkerId
p1746
VA255A9FFZD8PQW
p1747
sVmtHitId
p1748
V37OPIVELUU3JE7UAZAQGVB2IHMIAHX
p1749
sVtreatment_now
p1750
Vfeedback
p1751
sVsec_now
p1752
VsubmitHIT
p1753
sVcohort_now
p1754
I40
sVbonusEarnings
p1755
F1.5999999999999999
sVHITStatus
p1756
(dp1757
VgamesPlayed
p1758
I6
sVgamesConsummated
p1759
I5
ssVcompletedExperiment
p1760
I01
sVmeteorUserId
p1761
VHgc66uQw73gEt7HxW
p1762
sVbreakdownEarnings
p1763
(dp1764
Vexperiment1
p1765
F0.5
sVexperiment2
p1766
F0.7
sVhit
p1767
F0.1
sVsurvey
p1768
F0.15
sVquiz
p1769
F0.25
ssV_id
p1770
Vc6RrPNTLpMivsug9C
p1771
sVmtAssignmentId
p1772
V3CFVK00FWLLN0LZRQKT4WHPKE36L6B
p1773
sa(dp1774
VreadyToProceed
p1775
I00
sVtsGroupId
p1776
Vundefined
p1777
sVisExperienced
p1778
I0
sVsec_rnd_stg_now
p1779
I0
sVsec_rnd_now
p1780
I0
sVquiz
p1781
(dp1782
Vfailed
p1783
I00
sVpassed
p1784
I00
sVtriesLeft
p1785
I3
ssVsec_type_now
p1786
Vinstructions
p1787
sVblock_now
p1788
I0
sVtsBatchId
p1789
VdpmhLMSeHeJP8wGdo
p1790
sVcohortIds
p1791
(lp1792
sVtsAsstId
p1793
VRKwnk3Aftry64MfSq
p1794
sVtreatments
p1795
(lp1796
Vnofeedback
p1797
aVfeedback
p1798
asVmtWorkerId
p1799
VADCZGJUI64U9X
p1800
sVmtHitId
p1801
V3GVPRXWRPHU1R07WYPWHLW17GRR7IW
p1802
sVtreatment_now
p1803
Vnofeedback
p1804
sVsec_now
p1805
Vinstructions
p1806
sVcohort_now
p1807
I0
sVbonusEarnings
p1808
I0
sVcompletedExperiment
p1809
I00
sVmeteorUserId
p1810
VPLwNgyFa9rTcT66aZ
p1811
sV_id
p1812
Vv5mpj2fQRwrK86oQG
p1813
sVmtAssignmentId
p1814
V386CSBG1OZMYRIF4IP10D3OEO9TQ65
p1815
sa(dp1816
VreadyToProceed
p1817
I00
sVtsGroupId
p1818
Vundefined
p1819
sVisExperienced
p1820
I0
sVsec_rnd_stg_now
p1821
I0
sVsec_rnd_now
p1822
I0
sVquiz
p1823
(dp1824
Vfailed
p1825
I00
sVpassed
p1826
I00
sVtriesLeft
p1827
I3
ssVsec_type_now
p1828
Vinstructions
p1829
sVblock_now
p1830
I0
sVtsBatchId
p1831
VdpmhLMSeHeJP8wGdo
p1832
sVcohortIds
p1833
(lp1834
sVtsAsstId
p1835
VAfygkszrwRgAWh2me
p1836
sVtreatments
p1837
(lp1838
Vfeedback
p1839
aVnofeedback
p1840
asVmtWorkerId
p1841
VA1UHNDB2EQ8TK0
p1842
sVmtHitId
p1843
V3GVPRXWRPHU1R07WYPWHLW17GRR7IW
p1844
sVtreatment_now
p1845
Vfeedback
p1846
sVsec_now
p1847
Vinstructions
p1848
sVcohort_now
p1849
I0
sVbonusEarnings
p1850
I0
sVcompletedExperiment
p1851
I00
sVmeteorUserId
p1852
VgXS7SLafC2J3JAhyb
p1853
sV_id
p1854
Vjw3rkoip5ZRqXiLpK
p1855
sVmtAssignmentId
p1856
V3LJ7UR74RHDZ9YYYJ9G4CB9VN70N4U
p1857
sa(dp1858
VreadyToProceed
p1859
I00
sVtsGroupId
p1860
Vundefined
p1861
sVisExperienced
p1862
I0
sVsec_rnd_stg_now
p1863
I0
sVsec_rnd_now
p1864
I0
sVquiz
p1865
(dp1866
Vfailed
p1867
I01
sVpassed
p1868
I00
sVtriesLeft
p1869
I0
ssVsec_type_now
p1870
VsubmitHIT
p1871
sVblock_now
p1872
I0
sVtsBatchId
p1873
VdpmhLMSeHeJP8wGdo
p1874
sVcohortIds
p1875
(lp1876
sVtsAsstId
p1877
VtYWqhmMKQDTfwn6N4
p1878
sVtreatments
p1879
(lp1880
Vfeedback
p1881
aVnofeedback
p1882
asVmtWorkerId
p1883
VA3G8NSPRF986WP
p1884
sVmtHitId
p1885
V3GS542CVJVNTTV0A62B7AJO86V959W
p1886
sVtreatment_now
p1887
Vfeedback
p1888
sVsec_now
p1889
VsubmitHIT
p1890
sVcohort_now
p1891
I0
sVbonusEarnings
p1892
I0
sVcompletedExperiment
p1893
I00
sVmeteorUserId
p1894
VymmeRPhbpCnv4W3w2
p1895
sVbreakdownEarnings
p1896
(dp1897
Vexperiment1
p1898
I0
sVexperiment2
p1899
I0
sVhit
p1900
F0.1
sVsurvey
p1901
I0
sVquiz
p1902
I0
ssV_id
p1903
VNdDdhkNoSQvGyTBoJ
p1904
sVmtAssignmentId
p1905
V31UV0MXWNQCPRGR70YMMCVJS141I5E
p1906
sa(dp1907
VreadyToProceed
p1908
I00
sVtsGroupId
p1909
Vundefined
p1910
sVisExperienced
p1911
I0
sVsec_rnd_stg_now
p1912
I0
sVsec_rnd_now
p1913
I0
sVquiz
p1914
(dp1915
Vfailed
p1916
I01
sVpassed
p1917
I00
sVtriesLeft
p1918
I0
ssVsec_type_now
p1919
VsubmitHIT
p1920
sVblock_now
p1921
I0
sVtsBatchId
p1922
VdpmhLMSeHeJP8wGdo
p1923
sVcohortIds
p1924
(lp1925
sVtsAsstId
p1926
VoNS4PMkG893tHNoCS
p1927
sVtreatments
p1928
(lp1929
Vfeedback
p1930
aVnofeedback
p1931
asVmtWorkerId
p1932
VA3JDT3L41Z09YL
p1933
sVmtHitId
p1934
V3GVPRXWRPHU1R07WYPWHLW17GRR7IW
p1935
sVtreatment_now
p1936
Vfeedback
p1937
sVsec_now
p1938
VsubmitHIT
p1939
sVcohort_now
p1940
I0
sVbonusEarnings
p1941
I0
sVcompletedExperiment
p1942
I00
sVmeteorUserId
p1943
VCy6msqSpGboXSpjyB
p1944
sVbreakdownEarnings
p1945
(dp1946
Vexperiment1
p1947
I0
sVexperiment2
p1948
I0
sVhit
p1949
F0.1
sVsurvey
p1950
I0
sVquiz
p1951
I0
ssV_id
p1952
V4pMKtQ88bzncg6Wn2
p1953
sVmtAssignmentId
p1954
V3F1567XTNW5L91H2GW4CXDFGEA1Q9G
p1955
sa(dp1956
VreadyToProceed
p1957
I00
sVtsGroupId
p1958
Vundefined
p1959
sVisExperienced
p1960
I0
sVsec_rnd_stg_now
p1961
I0
sVsec_rnd_now
p1962
I0
sVquiz
p1963
(dp1964
Vfailed
p1965
I00
sVpassed
p1966
I01
sVtriesLeft
p1967
I3
ssVsec_type_now
p1968
VsubmitHIT
p1969
sVblock_now
p1970
I1
sVtsBatchId
p1971
VdpmhLMSeHeJP8wGdo
p1972
sVcohortIds
p1973
(lp1974
I51
aI58
asVtsAsstId
p1975
VQnzefkTYqBqHzEvTi
p1976
sVtreatments
p1977
(lp1978
Vfeedback
p1979
aVnofeedback
p1980
asVmtWorkerId
p1981
VA2MD4K1YFYBLZN
p1982
sVmtHitId
p1983
V37OPIVELUU3JE7UAZAQGVB2IHMIAHX
p1984
sVtreatment_now
p1985
Vnofeedback
p1986
sVsec_now
p1987
VsubmitHIT
p1988
sVcohort_now
p1989
I58
sVbonusEarnings
p1990
F1.8
sVHITStatus
p1991
(dp1992
VgamesPlayed
p1993
I6
sVgamesConsummated
p1994
I6
ssVcompletedExperiment
p1995
I01
sVmeteorUserId
p1996
VhspQ9wTrnh5qynh7M
p1997
sVbreakdownEarnings
p1998
(dp1999
Vexperiment1
p2000
F0.6000000000000001
sVexperiment2
p2001
F0.8
sVhit
p2002
F0.1
sVsurvey
p2003
F0.15
sVquiz
p2004
F0.25
ssV_id
p2005
VTKfDzReGXDSymExh8
p2006
sVmtAssignmentId
p2007
V3RU7GD8VPOTIE4CMPPPEE3UW124SP2
p2008
sa(dp2009
VreadyToProceed
p2010
I00
sVtsGroupId
p2011
Vundefined
p2012
sVisExperienced
p2013
I0
sVsec_rnd_stg_now
p2014
I0
sVsec_rnd_now
p2015
I0
sVquiz
p2016
(dp2017
Vfailed
p2018
I00
sVpassed
p2019
I01
sVtriesLeft
p2020
I3
ssVsec_type_now
p2021
VsubmitHIT
p2022
sVblock_now
p2023
I1
sVtsBatchId
p2024
VdpmhLMSeHeJP8wGdo
p2025
sVcohortIds
p2026
(lp2027
I49
aI46
asVtsAsstId
p2028
VEYbCxukbWaGTdDPKQ
p2029
sVtreatments
p2030
(lp2031
Vnofeedback
p2032
aVfeedback
p2033
asVmtWorkerId
p2034
VATIUQQLY0LCNA
p2035
sVmtHitId
p2036
V3GS542CVJVNTTV0A62B7AJO86V959W
p2037
sVtreatment_now
p2038
Vfeedback
p2039
sVsec_now
p2040
VsubmitHIT
p2041
sVcohort_now
p2042
I46
sVbonusEarnings
p2043
F1.2999999999999998
sVHITStatus
p2044
(dp2045
VgamesPlayed
p2046
I6
sVgamesConsummated
p2047
I6
ssVcompletedExperiment
p2048
I01
sVmeteorUserId
p2049
VBEk8WsLaW8d2KWSod
p2050
sVbreakdownEarnings
p2051
(dp2052
Vexperiment1
p2053
F0.4
sVexperiment2
p2054
F0.5
sVhit
p2055
F0.1
sVsurvey
p2056
F0.15
sVquiz
p2057
F0.25
ssV_id
p2058
VuRYhDTSJJXKZPQfGc
p2059
sVmtAssignmentId
p2060
V3X87C8JFV6B3EGD1P243E8K66YQSQT
p2061
sa(dp2062
VreadyToProceed
p2063
I00
sVtsGroupId
p2064
Vundefined
p2065
sVisExperienced
p2066
I0
sVsec_rnd_stg_now
p2067
I0
sVsec_rnd_now
p2068
I0
sVquiz
p2069
(dp2070
Vfailed
p2071
I00
sVpassed
p2072
I00
sVtriesLeft
p2073
I3
ssVsec_type_now
p2074
Vinstructions
p2075
sVblock_now
p2076
I0
sVtsBatchId
p2077
VdpmhLMSeHeJP8wGdo
p2078
sVcohortIds
p2079
(lp2080
sVtsAsstId
p2081
V5AA5otRZH64AdmEuu
p2082
sVtreatments
p2083
(lp2084
Vnofeedback
p2085
aVfeedback
p2086
asVmtWorkerId
p2087
VA2NF2OA358F8KM
p2088
sVmtHitId
p2089
V3YLPJ8OXX8D1Y8E8VDYBLU4CD254X9
p2090
sVtreatment_now
p2091
Vnofeedback
p2092
sVsec_now
p2093
Vinstructions
p2094
sVcohort_now
p2095
I0
sVbonusEarnings
p2096
I0
sVcompletedExperiment
p2097
I00
sVmeteorUserId
p2098
VbMu2ygn7stbBT57Rr
p2099
sV_id
p2100
VZSteCi9G8sMcyRH5A
p2101
sVmtAssignmentId
p2102
V3B837J3LDOW3QHS12HT3JYUB2KSSRU
p2103
sa(dp2104
VreadyToProceed
p2105
I00
sVtsGroupId
p2106
Vundefined
p2107
sVisExperienced
p2108
I0
sVsec_rnd_stg_now
p2109
I0
sVsec_rnd_now
p2110
I0
sVquiz
p2111
(dp2112
Vfailed
p2113
I00
sVpassed
p2114
I01
sVtriesLeft
p2115
I3
ssVsec_type_now
p2116
VsubmitHIT
p2117
sVblock_now
p2118
I1
sVtsBatchId
p2119
VdpmhLMSeHeJP8wGdo
p2120
sVcohortIds
p2121
(lp2122
I32
aI36
asVtsAsstId
p2123
V7nn4Myt57m7i2PHcB
p2124
sVtreatments
p2125
(lp2126
Vfeedback
p2127
aVnofeedback
p2128
asVmtWorkerId
p2129
VAYQJO08F8EAB9
p2130
sVmtHitId
p2131
V3GS542CVJVNTTV0A62B7AJO86V959W
p2132
sVtreatment_now
p2133
Vnofeedback
p2134
sVsec_now
p2135
VsubmitHIT
p2136
sVcohort_now
p2137
I36
sVbonusEarnings
p2138
F1.6
sVHITStatus
p2139
(dp2140
VgamesPlayed
p2141
I6
sVgamesConsummated
p2142
I5
ssVcompletedExperiment
p2143
I01
sVmeteorUserId
p2144
VLpWWqJWLn8mp8gZr5
p2145
sVbreakdownEarnings
p2146
(dp2147
Vexperiment1
p2148
F0.6000000000000001
sVexperiment2
p2149
F0.6000000000000001
sVhit
p2150
F0.1
sVsurvey
p2151
F0.15
sVquiz
p2152
F0.25
ssV_id
p2153
V78BCt7ZtNw4f8JD8n
p2154
sVmtAssignmentId
p2155
V3JNQLM5FT4MZIKGQ3IH16488YY4L2U
p2156
sa(dp2157
VreadyToProceed
p2158
I00
sVtsGroupId
p2159
Vundefined
p2160
sVisExperienced
p2161
I0
sVsec_rnd_stg_now
p2162
I0
sVsec_rnd_now
p2163
I0
sVquiz
p2164
(dp2165
Vfailed
p2166
I00
sVpassed
p2167
I01
sVtriesLeft
p2168
I3
ssVsec_type_now
p2169
VsubmitHIT
p2170
sVblock_now
p2171
I1
sVtsBatchId
p2172
VdpmhLMSeHeJP8wGdo
p2173
sVcohortIds
p2174
(lp2175
I106
aI109
asVtsAsstId
p2176
VYYKTW4HcNTYBCoAo4
p2177
sVtreatments
p2178
(lp2179
Vfeedback
p2180
aVnofeedback
p2181
asVmtWorkerId
p2182
VAO4241SMFJ95K
p2183
sVmtHitId
p2184
V3GS542CVJVNTTV0A62B7AJO86V959W
p2185
sVtreatment_now
p2186
Vnofeedback
p2187
sVsec_now
p2188
VsubmitHIT
p2189
sVcohort_now
p2190
I109
sVbonusEarnings
p2191
I1
sVHITStatus
p2192
(dp2193
VgamesPlayed
p2194
I6
sVgamesConsummated
p2195
I6
ssVcompletedExperiment
p2196
I01
sVmeteorUserId
p2197
VfSuyeG9ADshvTF9nL
p2198
sVbreakdownEarnings
p2199
(dp2200
Vexperiment1
p2201
F0.30000000000000004
sVexperiment2
p2202
F0.30000000000000004
sVhit
p2203
F0.1
sVsurvey
p2204
F0.15
sVquiz
p2205
F0.25
ssV_id
p2206
VMt4XGWfGRZA9Wp6Ep
p2207
sVmtAssignmentId
p2208
V3Y4W8Q93LZKPHZQ0EB3OPWXEMNVVDW
p2209
sa(dp2210
VreadyToProceed
p2211
I00
sVtsGroupId
p2212
Vundefined
p2213
sVisExperienced
p2214
I0
sVsec_rnd_stg_now
p2215
I0
sVsec_rnd_now
p2216
I0
sVquiz
p2217
(dp2218
Vfailed
p2219
I00
sVpassed
p2220
I01
sVtriesLeft
p2221
I3
ssVsec_type_now
p2222
VsubmitHIT
p2223
sVblock_now
p2224
I1
sVtsBatchId
p2225
VdpmhLMSeHeJP8wGdo
p2226
sVcohortIds
p2227
(lp2228
I37
aI41
asVtsAsstId
p2229
VGmZfx2e8wTfW2opQ2
p2230
sVtreatments
p2231
(lp2232
Vnofeedback
p2233
aVnofeedback
p2234
asVmtWorkerId
p2235
VA3PRZRK9IC5CBI
p2236
sVmtHitId
p2237
V3YLPJ8OXX8D1Y8E8VDYBLU4CD254X9
p2238
sVtreatment_now
p2239
Vnofeedback
p2240
sVsec_now
p2241
VsubmitHIT
p2242
sVcohort_now
p2243
I41
sVbonusEarnings
p2244
F1.6
sVHITStatus
p2245
(dp2246
VgamesPlayed
p2247
I6
sVgamesConsummated
p2248
I6
ssVcompletedExperiment
p2249
I01
sVmeteorUserId
p2250
VhP5QRovHWaETNdLb8
p2251
sVbreakdownEarnings
p2252
(dp2253
Vexperiment1
p2254
F0.30000000000000004
sVexperiment2
p2255
F0.9000000000000001
sVhit
p2256
F0.1
sVsurvey
p2257
F0.15
sVquiz
p2258
F0.25
ssV_id
p2259
Vd3adknNGBEpQG8iFK
p2260
sVmtAssignmentId
p2261
V34T446B1C0EZJ6J6BIKOKXP67R70CA
p2262
sa(dp2263
VreadyToProceed
p2264
I00
sVtsGroupId
p2265
Vundefined
p2266
sVisExperienced
p2267
I0
sVsec_rnd_stg_now
p2268
I0
sVsec_rnd_now
p2269
I0
sVquiz
p2270
(dp2271
Vfailed
p2272
I00
sVpassed
p2273
I01
sVtriesLeft
p2274
I3
ssVsec_type_now
p2275
VsubmitHIT
p2276
sVblock_now
p2277
I1
sVtsBatchId
p2278
VdpmhLMSeHeJP8wGdo
p2279
sVcohortIds
p2280
(lp2281
I44
aI53
asVtsAsstId
p2282
VRXF3hK8EkvpBGEDZ4
p2283
sVtreatments
p2284
(lp2285
Vnofeedback
p2286
aVnofeedback
p2287
asVmtWorkerId
p2288
VA25AX0DNHKJCQT
p2289
sVmtHitId
p2290
V3XQ4XW3OD9CJZDDMXP90T7QME972S3
p2291
sVtreatment_now
p2292
Vnofeedback
p2293
sVsec_now
p2294
VsubmitHIT
p2295
sVcohort_now
p2296
I53
sVbonusEarnings
p2297
I2
sVHITStatus
p2298
(dp2299
VgamesPlayed
p2300
I6
sVgamesConsummated
p2301
I6
ssVcompletedExperiment
p2302
I01
sVmeteorUserId
p2303
VBu2dqocZwxuxRHFiC
p2304
sVbreakdownEarnings
p2305
(dp2306
Vexperiment1
p2307
F0.7
sVexperiment2
p2308
F0.9000000000000001
sVhit
p2309
F0.1
sVsurvey
p2310
F0.15
sVquiz
p2311
F0.25
ssV_id
p2312
VDwXdKJgkwGD3L5Bcv
p2313
sVmtAssignmentId
p2314
V3E47SOBEYQWAQ10MF89UQ1P2TLNICM
p2315
sa(dp2316
VreadyToProceed
p2317
I00
sVtsGroupId
p2318
Vundefined
p2319
sVisExperienced
p2320
I0
sVsec_rnd_stg_now
p2321
I0
sVsec_rnd_now
p2322
I0
sVquiz
p2323
(dp2324
Vfailed
p2325
I00
sVpassed
p2326
I01
sVtriesLeft
p2327
I2
ssVsec_type_now
p2328
VsubmitHIT
p2329
sVblock_now
p2330
I1
sVtsBatchId
p2331
VdpmhLMSeHeJP8wGdo
p2332
sVcohortIds
p2333
(lp2334
I43
aI59
asVtsAsstId
p2335
Vxu7PtGykZkapzm2K6
p2336
sVtreatments
p2337
(lp2338
Vfeedback
p2339
aVnofeedback
p2340
asVmtWorkerId
p2341
VA3NHJPE6326P9V
p2342
sVmtHitId
p2343
V37OPIVELUU3JE7UAZAQGVB2IHMIAHX
p2344
sVtreatment_now
p2345
Vnofeedback
p2346
sVsec_now
p2347
VsubmitHIT
p2348
sVcohort_now
p2349
I59
sVbonusEarnings
p2350
F1.5
sVHITStatus
p2351
(dp2352
VgamesPlayed
p2353
I6
sVgamesConsummated
p2354
I5
ssVcompletedExperiment
p2355
I01
sVmeteorUserId
p2356
VG8RHeTr7gk5dg8HpE
p2357
sVbreakdownEarnings
p2358
(dp2359
Vexperiment1
p2360
F0.4
sVexperiment2
p2361
F0.7000000000000001
sVhit
p2362
F0.1
sVsurvey
p2363
F0.15
sVquiz
p2364
F0.25
ssV_id
p2365
V4AnBGSLY3nzM6ZazS
p2366
sVmtAssignmentId
p2367
V3QHK8ZVMIMIT6XGMMBAC7XBCS4HLBW
p2368
sa(dp2369
VreadyToProceed
p2370
I00
sVtsGroupId
p2371
Vundefined
p2372
sVisExperienced
p2373
I0
sVsec_rnd_stg_now
p2374
I0
sVsec_rnd_now
p2375
I0
sVquiz
p2376
(dp2377
Vfailed
p2378
I00
sVpassed
p2379
I01
sVtriesLeft
p2380
I3
ssVsec_type_now
p2381
VsubmitHIT
p2382
sVblock_now
p2383
I1
sVtsBatchId
p2384
VdpmhLMSeHeJP8wGdo
p2385
sVcohortIds
p2386
(lp2387
I41
aI52
asVtsAsstId
p2388
Vr6SqCxLfeTG36Ni5K
p2389
sVtreatments
p2390
(lp2391
Vfeedback
p2392
aVnofeedback
p2393
asVmtWorkerId
p2394
VA3KX8PBHVFQZ3U
p2395
sVmtHitId
p2396
V3GS542CVJVNTTV0A62B7AJO86V959W
p2397
sVtreatment_now
p2398
Vnofeedback
p2399
sVsec_now
p2400
VsubmitHIT
p2401
sVcohort_now
p2402
I52
sVbonusEarnings
p2403
F2.2
sVHITStatus
p2404
(dp2405
VgamesPlayed
p2406
I6
sVgamesConsummated
p2407
I6
ssVcompletedExperiment
p2408
I01
sVmeteorUserId
p2409
VWr47saendmcHB9Nxr
p2410
sVbreakdownEarnings
p2411
(dp2412
Vexperiment1
p2413
F0.9000000000000001
sVexperiment2
p2414
F0.9000000000000001
sVhit
p2415
F0.1
sVsurvey
p2416
F0.15
sVquiz
p2417
F0.25
ssV_id
p2418
VAZBfJDtqexa7QBpci
p2419
sVmtAssignmentId
p2420
V392CY0QWG1R7VXN7MT3C73DE186I49
p2421
sa(dp2422
VreadyToProceed
p2423
I00
sVtsGroupId
p2424
Vundefined
p2425
sVisExperienced
p2426
I0
sVsec_rnd_stg_now
p2427
I0
sVsec_rnd_now
p2428
I0
sVquiz
p2429
(dp2430
Vfailed
p2431
I01
sVpassed
p2432
I00
sVtriesLeft
p2433
I0
ssVsec_type_now
p2434
VsubmitHIT
p2435
sVblock_now
p2436
I0
sVtsBatchId
p2437
VdpmhLMSeHeJP8wGdo
p2438
sVcohortIds
p2439
(lp2440
sVtsAsstId
p2441
VDuDG8H6WuFdkm6agC
p2442
sVtreatments
p2443
(lp2444
Vfeedback
p2445
aVnofeedback
p2446
asVmtWorkerId
p2447
VA1PUHCEBSOWETV
p2448
sVmtHitId
p2449
V3XQ4XW3OD9CJZDDMXP90T7QME972S3
p2450
sVtreatment_now
p2451
Vfeedback
p2452
sVsec_now
p2453
VsubmitHIT
p2454
sVcohort_now
p2455
I0
sVbonusEarnings
p2456
I0
sVcompletedExperiment
p2457
I00
sVmeteorUserId
p2458
VjyM9k9f4Pz82v83To
p2459
sVbreakdownEarnings
p2460
(dp2461
Vexperiment1
p2462
I0
sVexperiment2
p2463
I0
sVhit
p2464
F0.1
sVsurvey
p2465
I0
sVquiz
p2466
I0
ssV_id
p2467
VNabY249w37GQC832Y
p2468
sVmtAssignmentId
p2469
V33IZTU6J811NNDEDBGZV8GGZ31DSXQ
p2470
sa(dp2471
VreadyToProceed
p2472
I00
sVtsGroupId
p2473
Vundefined
p2474
sVisExperienced
p2475
I0
sVsec_rnd_stg_now
p2476
I0
sVsec_rnd_now
p2477
I0
sVquiz
p2478
(dp2479
Vfailed
p2480
I00
sVpassed
p2481
I01
sVtriesLeft
p2482
I3
ssVsec_type_now
p2483
VsubmitHIT
p2484
sVblock_now
p2485
I1
sVtsBatchId
p2486
VdpmhLMSeHeJP8wGdo
p2487
sVcohortIds
p2488
(lp2489
I51
aI48
asVtsAsstId
p2490
VJy72HWuaD3zp4HPK4
p2491
sVtreatments
p2492
(lp2493
Vnofeedback
p2494
aVfeedback
p2495
asVmtWorkerId
p2496
VAGHLR9UNHB6ZR
p2497
sVmtHitId
p2498
V3YLPJ8OXX8D1Y8E8VDYBLU4CD254X9
p2499
sVtreatment_now
p2500
Vfeedback
p2501
sVsec_now
p2502
VsubmitHIT
p2503
sVcohort_now
p2504
I48
sVbonusEarnings
p2505
F1.8
sVHITStatus
p2506
(dp2507
VgamesPlayed
p2508
I6
sVgamesConsummated
p2509
I6
ssVcompletedExperiment
p2510
I01
sVmeteorUserId
p2511
VeEnScgwfzjxM9xPaW
p2512
sVbreakdownEarnings
p2513
(dp2514
Vexperiment1
p2515
F0.8
sVexperiment2
p2516
F0.6000000000000001
sVhit
p2517
F0.1
sVsurvey
p2518
F0.15
sVquiz
p2519
F0.25
ssV_id
p2520
VmwFW5Lc2RGXR8QuCa
p2521
sVmtAssignmentId
p2522
V3TU5ZICBRD1LVWYSB4YYXHK5U4JQ8R
p2523
sa(dp2524
VreadyToProceed
p2525
I00
sVtsGroupId
p2526
Vundefined
p2527
sVisExperienced
p2528
I0
sVsec_rnd_stg_now
p2529
I0
sVsec_rnd_now
p2530
I0
sVquiz
p2531
(dp2532
Vfailed
p2533
I00
sVpassed
p2534
I01
sVtriesLeft
p2535
I2
ssVsec_type_now
p2536
VsubmitHIT
p2537
sVblock_now
p2538
I1
sVtsBatchId
p2539
VdpmhLMSeHeJP8wGdo
p2540
sVcohortIds
p2541
(lp2542
I54
aI52
asVtsAsstId
p2543
VrcSBqMDtQ3DhRruXS
p2544
sVtreatments
p2545
(lp2546
Vnofeedback
p2547
aVfeedback
p2548
asVmtWorkerId
p2549
VAY9ZVK32I1P1L
p2550
sVmtHitId
p2551
V37OPIVELUU3JE7UAZAQGVB2IHMIAHX
p2552
sVtreatment_now
p2553
Vfeedback
p2554
sVsec_now
p2555
VsubmitHIT
p2556
sVcohort_now
p2557
I52
sVbonusEarnings
p2558
F2.1
sVHITStatus
p2559
(dp2560
VgamesPlayed
p2561
I6
sVgamesConsummated
p2562
I6
ssVcompletedExperiment
p2563
I01
sVmeteorUserId
p2564
Vh9pz6HY3mdah8R5Jq
p2565
sVbreakdownEarnings
p2566
(dp2567
Vexperiment1
p2568
F0.8
sVexperiment2
p2569
F0.9000000000000001
sVhit
p2570
F0.1
sVsurvey
p2571
F0.15
sVquiz
p2572
F0.25
ssV_id
p2573
VXzaJiLWjp8kcRTKNv
p2574
sVmtAssignmentId
p2575
V3IOEN3P9S7JAAEVNXABLC2G6GX216M
p2576
sa(dp2577
VreadyToProceed
p2578
I00
sVtsGroupId
p2579
Vundefined
p2580
sVisExperienced
p2581
I3
sVsec_rnd_stg_now
p2582
I0
sVsec_rnd_now
p2583
I0
sVquiz
p2584
(dp2585
Vfailed
p2586
I00
sVpassed
p2587
I00
sVtriesLeft
p2588
I3
ssVsec_type_now
p2589
VsubmitHIT
p2590
sVblock_now
p2591
I1
sVtsBatchId
p2592
VdpmhLMSeHeJP8wGdo
p2593
sVcohortIds
p2594
(lp2595
I31
aI35
asVtsAsstId
p2596
VugBvtMcAYTYBbACBe
p2597
sVtreatments
p2598
(lp2599
Vfeedback
p2600
aVnofeedback
p2601
asVmtWorkerId
p2602
VA15FXHC1CVNW31
p2603
sVmtHitId
p2604
V37OPIVELUU3JE7UAZAQGVB2IHMIAHX
p2605
sVtreatment_now
p2606
Vnofeedback
p2607
sVsec_now
p2608
VsubmitHIT
p2609
sVcohort_now
p2610
I35
sVbonusEarnings
p2611
F1.1
sVHITStatus
p2612
(dp2613
VgamesPlayed
p2614
I6
sVgamesConsummated
p2615
I6
ssVcompletedExperiment
p2616
I01
sVmeteorUserId
p2617
VXSreo4RoaNqbKpmkK
p2618
sVbreakdownEarnings
p2619
(dp2620
Vexperiment1
p2621
F0.8
sVexperiment2
p2622
F0.30000000000000004
sVhit
p2623
F0.1
sVsurvey
p2624
I0
sVquiz
p2625
I0
ssV_id
p2626
VAPq7gLuwcvT7kZ7Qr
p2627
sVmtAssignmentId
p2628
V30LSNF239UVXSJ8KIFKOEOGGHUAI2D
p2629
sa(dp2630
VreadyToProceed
p2631
I00
sVtsGroupId
p2632
Vundefined
p2633
sVisExperienced
p2634
I0
sVsec_rnd_stg_now
p2635
I0
sVsec_rnd_now
p2636
I0
sVquiz
p2637
(dp2638
Vfailed
p2639
I00
sVpassed
p2640
I01
sVtriesLeft
p2641
I3
ssVsec_type_now
p2642
VsubmitHIT
p2643
sVblock_now
p2644
I1
sVtsBatchId
p2645
VdpmhLMSeHeJP8wGdo
p2646
sVcohortIds
p2647
(lp2648
I44
aI56
asVtsAsstId
p2649
VS3z2s6QN5mqw5cn23
p2650
sVtreatments
p2651
(lp2652
Vfeedback
p2653
aVnofeedback
p2654
asVmtWorkerId
p2655
VAK3H5QRAROFGP
p2656
sVmtHitId
p2657
V3YLPJ8OXX8D1Y8E8VDYBLU4CD254X9
p2658
sVtreatment_now
p2659
Vnofeedback
p2660
sVsec_now
p2661
VsubmitHIT
p2662
sVcohort_now
p2663
I56
sVbonusEarnings
p2664
F2.1
sVHITStatus
p2665
(dp2666
VgamesPlayed
p2667
I6
sVgamesConsummated
p2668
I6
ssVcompletedExperiment
p2669
I01
sVmeteorUserId
p2670
VbRnAjiH7pr9845P67
p2671
sVbreakdownEarnings
p2672
(dp2673
Vexperiment1
p2674
F0.8
sVexperiment2
p2675
F0.9000000000000001
sVhit
p2676
F0.1
sVsurvey
p2677
F0.15
sVquiz
p2678
F0.25
ssV_id
p2679
Vcwv6fWJCS7Rptbk5L
p2680
sVmtAssignmentId
p2681
V3IFS6Q0HJIJQXIPICUZU56TKFO9SIQ
p2682
sa(dp2683
VreadyToProceed
p2684
I00
sVtsGroupId
p2685
Vundefined
p2686
sVisExperienced
p2687
I0
sVsec_rnd_stg_now
p2688
I0
sVsec_rnd_now
p2689
I0
sVquiz
p2690
(dp2691
Vfailed
p2692
I00
sVpassed
p2693
I01
sVtriesLeft
p2694
I3
ssVsec_type_now
p2695
VsubmitHIT
p2696
sVblock_now
p2697
I1
sVtsBatchId
p2698
VdpmhLMSeHeJP8wGdo
p2699
sVcohortIds
p2700
(lp2701
I63
aI59
asVtsAsstId
p2702
VeTF75YEx4ii6s2FJQ
p2703
sVtreatments
p2704
(lp2705
Vnofeedback
p2706
aVfeedback
p2707
asVmtWorkerId
p2708
VA22DP0ST9DWG9O
p2709
sVmtHitId
p2710
V3XQ4XW3OD9CJZDDMXP90T7QME972S3
p2711
sVtreatment_now
p2712
Vfeedback
p2713
sVsec_now
p2714
VsubmitHIT
p2715
sVcohort_now
p2716
I59
sVbonusEarnings
p2717
I2
sVHITStatus
p2718
(dp2719
VgamesPlayed
p2720
I6
sVgamesConsummated
p2721
I6
ssVcompletedExperiment
p2722
I01
sVmeteorUserId
p2723
Vnqy9JmQbuZFRPogJw
p2724
sVbreakdownEarnings
p2725
(dp2726
Vexperiment1
p2727
F0.8
sVexperiment2
p2728
F0.8
sVhit
p2729
F0.1
sVsurvey
p2730
F0.15
sVquiz
p2731
F0.25
ssV_id
p2732
Vp9qSyZTXADGkSDEoe
p2733
sVmtAssignmentId
p2734
V3E4GGUZ1T8ROYEY8II50R4VT9Y02K9
p2735
sa(dp2736
VreadyToProceed
p2737
I00
sVtsGroupId
p2738
Vundefined
p2739
sVisExperienced
p2740
I2
sVsec_rnd_stg_now
p2741
I0
sVsec_rnd_now
p2742
I0
sVquiz
p2743
(dp2744
Vfailed
p2745
I00
sVpassed
p2746
I00
sVtriesLeft
p2747
I3
ssVsec_type_now
p2748
VsubmitHIT
p2749
sVblock_now
p2750
I1
sVtsBatchId
p2751
VdpmhLMSeHeJP8wGdo
p2752
sVcohortIds
p2753
(lp2754
I36
aI60
asVtsAsstId
p2755
VjbnHfJPHsap9XKauQ
p2756
sVtreatments
p2757
(lp2758
Vfeedback
p2759
aVnofeedback
p2760
asVmtWorkerId
p2761
VA2A0M30DSA7ZN
p2762
sVmtHitId
p2763
V3XQ4XW3OD9CJZDDMXP90T7QME972S3
p2764
sVtreatment_now
p2765
Vnofeedback
p2766
sVsec_now
p2767
VsubmitHIT
p2768
sVcohort_now
p2769
I60
sVbonusEarnings
p2770
F0.5
sVHITStatus
p2771
(dp2772
VgamesPlayed
p2773
I6
sVgamesConsummated
p2774
I5
ssVcompletedExperiment
p2775
I01
sVmeteorUserId
p2776
V38pi4HxgRX27sTq4b
p2777
sVbreakdownEarnings
p2778
(dp2779
Vexperiment1
p2780
F0.4
sVexperiment2
p2781
F0.1
sVhit
p2782
F0.1
sVsurvey
p2783
I0
sVquiz
p2784
I0
ssV_id
p2785
VY3C23GKeX5gd3YFsq
p2786
sVmtAssignmentId
p2787
V3RWE2M8QWHAIAAGX08T208JI6VKN0E
p2788
sa(dp2789
VreadyToProceed
p2790
I00
sVtsGroupId
p2791
Vundefined
p2792
sVisExperienced
p2793
I0
sVsec_rnd_stg_now
p2794
I0
sVsec_rnd_now
p2795
I0
sVquiz
p2796
(dp2797
Vfailed
p2798
I00
sVpassed
p2799
I01
sVtriesLeft
p2800
I3
ssVsec_type_now
p2801
VsubmitHIT
p2802
sVblock_now
p2803
I1
sVtsBatchId
p2804
VdpmhLMSeHeJP8wGdo
p2805
sVcohortIds
p2806
(lp2807
I48
aI42
asVtsAsstId
p2808
VEmMZmWeFFDPwgxREA
p2809
sVtreatments
p2810
(lp2811
Vnofeedback
p2812
aVfeedback
p2813
asVmtWorkerId
p2814
VA2DWQF4ZHHBLOW
p2815
sVmtHitId
p2816
V3GS542CVJVNTTV0A62B7AJO86V959W
p2817
sVtreatment_now
p2818
Vfeedback
p2819
sVsec_now
p2820
VsubmitHIT
p2821
sVcohort_now
p2822
I42
sVbonusEarnings
p2823
F1.8
sVHITStatus
p2824
(dp2825
VgamesPlayed
p2826
I5
sVgamesConsummated
p2827
I5
ssVcompletedExperiment
p2828
I01
sVmeteorUserId
p2829
VKnD4SiTrJ29Zn8AA8
p2830
sVbreakdownEarnings
p2831
(dp2832
Vexperiment1
p2833
F0.9000000000000001
sVexperiment2
p2834
F0.5
sVhit
p2835
F0.1
sVsurvey
p2836
F0.15
sVquiz
p2837
F0.25
ssV_id
p2838
VHMNeh82jsuewDFRee
p2839
sVmtAssignmentId
p2840
V31UV0MXWNQCPRGR70YMMCVJS141I5E
p2841
sa(dp2842
VreadyToProceed
p2843
I00
sVtsGroupId
p2844
Vundefined
p2845
sVisExperienced
p2846
I0
sVsec_rnd_stg_now
p2847
I0
sVsec_rnd_now
p2848
I0
sVquiz
p2849
(dp2850
Vfailed
p2851
I00
sVpassed
p2852
I01
sVtriesLeft
p2853
I3
ssVsec_type_now
p2854
VsubmitHIT
p2855
sVblock_now
p2856
I1
sVtsBatchId
p2857
VdpmhLMSeHeJP8wGdo
p2858
sVcohortIds
p2859
(lp2860
I55
aI61
asVtsAsstId
p2861
VGCd2J37qDLnYyCzuR
p2862
sVtreatments
p2863
(lp2864
Vfeedback
p2865
aVnofeedback
p2866
asVmtWorkerId
p2867
VA2R8IV2PWFTY00
p2868
sVmtHitId
p2869
V3GVPRXWRPHU1R07WYPWHLW17GRR7IW
p2870
sVtreatment_now
p2871
Vnofeedback
p2872
sVsec_now
p2873
VsubmitHIT
p2874
sVcohort_now
p2875
I61
sVbonusEarnings
p2876
F1.6
sVHITStatus
p2877
(dp2878
VgamesPlayed
p2879
I6
sVgamesConsummated
p2880
I6
ssVcompletedExperiment
p2881
I01
sVmeteorUserId
p2882
VAuQwMsMPjeyaZQt7L
p2883
sVbreakdownEarnings
p2884
(dp2885
Vexperiment1
p2886
F0.9000000000000001
sVexperiment2
p2887
F0.30000000000000004
sVhit
p2888
F0.1
sVsurvey
p2889
F0.15
sVquiz
p2890
F0.25
ssV_id
p2891
VviFQzFiKMechiGiQq
p2892
sVmtAssignmentId
p2893
V3QAPZX2QN4DMLOR4EPVI8KGKV0U021
p2894
sa(dp2895
VreadyToProceed
p2896
I00
sVtsGroupId
p2897
Vundefined
p2898
sVisExperienced
p2899
I0
sVsec_rnd_stg_now
p2900
I0
sVsec_rnd_now
p2901
I0
sVquiz
p2902
(dp2903
Vfailed
p2904
I00
sVpassed
p2905
I01
sVtriesLeft
p2906
I3
ssVsec_type_now
p2907
VsubmitHIT
p2908
sVblock_now
p2909
I1
sVtsBatchId
p2910
VdpmhLMSeHeJP8wGdo
p2911
sVcohortIds
p2912
(lp2913
I55
aI49
asVtsAsstId
p2914
VLhaJeqmuo2B32P8GW
p2915
sVtreatments
p2916
(lp2917
Vnofeedback
p2918
aVfeedback
p2919
asVmtWorkerId
p2920
VA1OBWGLS5LRLT3
p2921
sVmtHitId
p2922
V3XQ4XW3OD9CJZDDMXP90T7QME972S3
p2923
sVtreatment_now
p2924
Vfeedback
p2925
sVsec_now
p2926
VsubmitHIT
p2927
sVcohort_now
p2928
I49
sVbonusEarnings
p2929
F1.5
sVHITStatus
p2930
(dp2931
VgamesPlayed
p2932
I6
sVgamesConsummated
p2933
I6
ssVcompletedExperiment
p2934
I01
sVmeteorUserId
p2935
Vs55W8DjwqkFgSXCi5
p2936
sVbreakdownEarnings
p2937
(dp2938
Vexperiment1
p2939
F0.5
sVexperiment2
p2940
F0.6000000000000001
sVhit
p2941
F0.1
sVsurvey
p2942
F0.15
sVquiz
p2943
F0.25
ssV_id
p2944
VPiYnmwQfGjuMbwrw7
p2945
sVmtAssignmentId
p2946
V3E1QT0TDFP98EYA9YWTPOFTJ3U2I8G
p2947
sa(dp2948
VreadyToProceed
p2949
I00
sVtsGroupId
p2950
Vundefined
p2951
sVisExperienced
p2952
I0
sVsec_rnd_stg_now
p2953
I0
sVsec_rnd_now
p2954
I0
sVquiz
p2955
(dp2956
Vfailed
p2957
I00
sVpassed
p2958
I01
sVtriesLeft
p2959
I3
ssVsec_type_now
p2960
VsubmitHIT
p2961
sVblock_now
p2962
I1
sVtsBatchId
p2963
VdpmhLMSeHeJP8wGdo
p2964
sVcohortIds
p2965
(lp2966
I57
aI62
asVtsAsstId
p2967
VMjmSLq4CP73kKxGaK
p2968
sVtreatments
p2969
(lp2970
Vfeedback
p2971
aVnofeedback
p2972
asVmtWorkerId
p2973
VA2A27TLFWKDXUW
p2974
sVmtHitId
p2975
V3GVPRXWRPHU1R07WYPWHLW17GRR7IW
p2976
sVtreatment_now
p2977
Vnofeedback
p2978
sVsec_now
p2979
VsubmitHIT
p2980
sVcohort_now
p2981
I62
sVbonusEarnings
p2982
F1.6
sVHITStatus
p2983
(dp2984
VgamesPlayed
p2985
I6
sVgamesConsummated
p2986
I5
ssVcompletedExperiment
p2987
I01
sVmeteorUserId
p2988
VJDissyde6usiTsbFE
p2989
sVbreakdownEarnings
p2990
(dp2991
Vexperiment1
p2992
F0.9000000000000001
sVexperiment2
p2993
F0.30000000000000004
sVhit
p2994
F0.1
sVsurvey
p2995
F0.15
sVquiz
p2996
F0.25
ssV_id
p2997
Vq3dms9F7ZTQAg9QLE
p2998
sVmtAssignmentId
p2999
V3X3OR7WPZZ0A4ZIFJZQ2GVLBKYXL8Y
p3000
sa(dp3001
VreadyToProceed
p3002
I00
sVtsGroupId
p3003
Vundefined
p3004
sVisExperienced
p3005
I1
sVsec_rnd_stg_now
p3006
I0
sVsec_rnd_now
p3007
I0
sVquiz
p3008
(dp3009
Vfailed
p3010
I00
sVpassed
p3011
I00
sVtriesLeft
p3012
I3
ssVsec_type_now
p3013
VsubmitHIT
p3014
sVblock_now
p3015
I1
sVtsBatchId
p3016
VdpmhLMSeHeJP8wGdo
p3017
sVcohortIds
p3018
(lp3019
I54
aI56
asVtsAsstId
p3020
V6sD5FZEBm8QbP7xjZ
p3021
sVtreatments
p3022
(lp3023
Vfeedback
p3024
aVfeedback
p3025
asVmtWorkerId
p3026
VA2O7H7VXLFN6BP
p3027
sVmtHitId
p3028
V3YLPJ8OXX8D1Y8E8VDYBLU4CD254X9
p3029
sVtreatment_now
p3030
Vfeedback
p3031
sVsec_now
p3032
VsubmitHIT
p3033
sVcohort_now
p3034
I56
sVbonusEarnings
p3035
F1.6
sVHITStatus
p3036
(dp3037
VgamesPlayed
p3038
I6
sVgamesConsummated
p3039
I6
ssVcompletedExperiment
p3040
I01
sVmeteorUserId
p3041
VoQAW8iMEQc5Di6PiM
p3042
sVbreakdownEarnings
p3043
(dp3044
Vexperiment1
p3045
F0.7000000000000001
sVexperiment2
p3046
F0.9000000000000001
sVhit
p3047
F0.1
sVsurvey
p3048
I0
sVquiz
p3049
I0
ssV_id
p3050
VubJAa7QoqguMHoAuY
p3051
sVmtAssignmentId
p3052
V3FFJ6VRIL1OQW9563SGAV0N1KWR0IC
p3053
sa(dp3054
VreadyToProceed
p3055
I00
sVtsGroupId
p3056
Vundefined
p3057
sVisExperienced
p3058
I9
sVsec_rnd_stg_now
p3059
I0
sVsec_rnd_now
p3060
I0
sVquiz
p3061
(dp3062
Vfailed
p3063
I00
sVpassed
p3064
I00
sVtriesLeft
p3065
I3
ssVsec_type_now
p3066
VsubmitHIT
p3067
sVblock_now
p3068
I1
sVtsBatchId
p3069
VdpmhLMSeHeJP8wGdo
p3070
sVcohortIds
p3071
(lp3072
I64
aI60
asVtsAsstId
p3073
VSSppHqqvvwmXebdQZ
p3074
sVtreatments
p3075
(lp3076
Vnofeedback
p3077
aVfeedback
p3078
asVmtWorkerId
p3079
VA3N0QZ9ZKUCTCQ
p3080
sVmtHitId
p3081
V37OPIVELUU3JE7UAZAQGVB2IHMIAHX
p3082
sVtreatment_now
p3083
Vfeedback
p3084
sVsec_now
p3085
VsubmitHIT
p3086
sVcohort_now
p3087
I60
sVbonusEarnings
p3088
F1.3000000000000003
sVHITStatus
p3089
(dp3090
VgamesPlayed
p3091
I6
sVgamesConsummated
p3092
I6
ssVcompletedExperiment
p3093
I01
sVmeteorUserId
p3094
VsjdvgdNzgau4jnYvm
p3095
sVbreakdownEarnings
p3096
(dp3097
Vexperiment1
p3098
F0.9000000000000001
sVexperiment2
p3099
F0.4
sVhit
p3100
F0.1
sVsurvey
p3101
I0
sVquiz
p3102
I0
ssV_id
p3103
VfDsCKuAAt7fBNBagp
p3104
sVmtAssignmentId
p3105
V308Q0PEVB8D8S3TJ3OZ3OBOUN0KI95
p3106
sa(dp3107
VreadyToProceed
p3108
I00
sVtsGroupId
p3109
Vundefined
p3110
sVisExperienced
p3111
I1
sVsec_rnd_stg_now
p3112
I0
sVsec_rnd_now
p3113
I0
sVquiz
p3114
(dp3115
Vfailed
p3116
I00
sVpassed
p3117
I00
sVtriesLeft
p3118
I3
ssVsec_type_now
p3119
VsubmitHIT
p3120
sVblock_now
p3121
I1
sVtsBatchId
p3122
VdpmhLMSeHeJP8wGdo
p3123
sVcohortIds
p3124
(lp3125
I82
aI86
asVtsAsstId
p3126
VagBAYyQiaBc8uejoe
p3127
sVtreatments
p3128
(lp3129
Vfeedback
p3130
aVnofeedback
p3131
asVmtWorkerId
p3132
VAADDOP3FHMAV1
p3133
sVmtHitId
p3134
V3MVY4USGB6NNAYROMSUSGNX34AWSI7
p3135
sVtreatment_now
p3136
Vnofeedback
p3137
sVsec_now
p3138
VsubmitHIT
p3139
sVcohort_now
p3140
I86
sVbonusEarnings
p3141
F1.2000000000000002
sVHITStatus
p3142
(dp3143
VgamesPlayed
p3144
I6
sVgamesConsummated
p3145
I6
ssVcompletedExperiment
p3146
I01
sVmeteorUserId
p3147
VXkTHcAFJPDLDnrAZK
p3148
sVbreakdownEarnings
p3149
(dp3150
Vexperiment1
p3151
F0.6000000000000001
sVexperiment2
p3152
F0.6000000000000001
sVhit
p3153
F0.1
sVsurvey
p3154
I0
sVquiz
p3155
I0
ssV_id
p3156
VZ9ktCEFWEWvfvAK6G
p3157
sVmtAssignmentId
p3158
V33NF62TLXJ2O4AWGP3BSQLHAB9TJKK
p3159
sa(dp3160
VreadyToProceed
p3161
I00
sVtsGroupId
p3162
Vundefined
p3163
sVisExperienced
p3164
I0
sVsec_rnd_stg_now
p3165
I0
sVsec_rnd_now
p3166
I0
sVquiz
p3167
(dp3168
Vfailed
p3169
I00
sVpassed
p3170
I01
sVtriesLeft
p3171
I3
ssVsec_type_now
p3172
VsubmitHIT
p3173
sVblock_now
p3174
I1
sVtsBatchId
p3175
VdpmhLMSeHeJP8wGdo
p3176
sVcohortIds
p3177
(lp3178
I71
aI73
asVtsAsstId
p3179
VGFMqnKkFn7PFkoNLv
p3180
sVtreatments
p3181
(lp3182
Vnofeedback
p3183
aVnofeedback
p3184
asVmtWorkerId
p3185
VA14ADQ7RUN6TDY
p3186
sVmtHitId
p3187
V3QTFNPMJC6ICPBOTE01SHOQNDP3ZNE
p3188
sVtreatment_now
p3189
Vnofeedback
p3190
sVsec_now
p3191
VsubmitHIT
p3192
sVcohort_now
p3193
I73
sVbonusEarnings
p3194
F1.6
sVHITStatus
p3195
(dp3196
VgamesPlayed
p3197
I6
sVgamesConsummated
p3198
I6
ssVcompletedExperiment
p3199
I01
sVmeteorUserId
p3200
VkWRPs7pBknAsMEkBB
p3201
sVbreakdownEarnings
p3202
(dp3203
Vexperiment1
p3204
F0.30000000000000004
sVexperiment2
p3205
F0.9000000000000001
sVhit
p3206
F0.1
sVsurvey
p3207
F0.15
sVquiz
p3208
F0.25
ssV_id
p3209
Vr7bLP72dy383RxufL
p3210
sVmtAssignmentId
p3211
V37TD41K0AH9ZKF3IKK38U3VP2JYCSH
p3212
sa(dp3213
VreadyToProceed
p3214
I00
sVtsGroupId
p3215
Vundefined
p3216
sVisExperienced
p3217
I0
sVsec_rnd_stg_now
p3218
I0
sVsec_rnd_now
p3219
I0
sVquiz
p3220
(dp3221
Vfailed
p3222
I00
sVpassed
p3223
I01
sVtriesLeft
p3224
I1
ssVsec_type_now
p3225
VsubmitHIT
p3226
sVblock_now
p3227
I1
sVtsBatchId
p3228
VdpmhLMSeHeJP8wGdo
p3229
sVcohortIds
p3230
(lp3231
I68
aI70
asVtsAsstId
p3232
VbfSuR5uyDHyWwfBcd
p3233
sVtreatments
p3234
(lp3235
Vfeedback
p3236
aVnofeedback
p3237
asVmtWorkerId
p3238
VA110KENBXU7SUJ
p3239
sVmtHitId
p3240
V3QTFNPMJC6ICPBOTE01SHOQNDP3ZNE
p3241
sVtreatment_now
p3242
Vnofeedback
p3243
sVsec_now
p3244
VsubmitHIT
p3245
sVcohort_now
p3246
I70
sVbonusEarnings
p3247
F0.9
sVHITStatus
p3248
(dp3249
VgamesPlayed
p3250
I6
sVgamesConsummated
p3251
I6
ssVcompletedExperiment
p3252
I01
sVmeteorUserId
p3253
V2X4ZGCcrMzqXYk3GW
p3254
sVbreakdownEarnings
p3255
(dp3256
Vexperiment1
p3257
F0.5
sVexperiment2
p3258
I0
sVhit
p3259
F0.1
sVsurvey
p3260
F0.15
sVquiz
p3261
F0.25
ssV_id
p3262
VouxipvFPTFMfcYBLG
p3263
sVmtAssignmentId
p3264
V3TXMY6UCAEON7ZO5SGE3Z3GOKVDCQS
p3265
sa(dp3266
VreadyToProceed
p3267
I00
sVtsGroupId
p3268
Vundefined
p3269
sVisExperienced
p3270
I0
sVsec_rnd_stg_now
p3271
I0
sVsec_rnd_now
p3272
I0
sVquiz
p3273
(dp3274
Vfailed
p3275
I00
sVpassed
p3276
I01
sVtriesLeft
p3277
I3
ssVsec_type_now
p3278
VsubmitHIT
p3279
sVblock_now
p3280
I1
sVtsBatchId
p3281
VdpmhLMSeHeJP8wGdo
p3282
sVcohortIds
p3283
(lp3284
I74
aI75
asVtsAsstId
p3285
VBe8AT24DrtyiGtafG
p3286
sVtreatments
p3287
(lp3288
Vfeedback
p3289
aVnofeedback
p3290
asVmtWorkerId
p3291
VA49HPQ9P5AHU4
p3292
sVmtHitId
p3293
V3SSN80MU8COMCA3BG5LRSBT8BV1KX0
p3294
sVtreatment_now
p3295
Vnofeedback
p3296
sVsec_now
p3297
VsubmitHIT
p3298
sVcohort_now
p3299
I75
sVbonusEarnings
p3300
F2.1
sVHITStatus
p3301
(dp3302
VgamesPlayed
p3303
I6
sVgamesConsummated
p3304
I6
ssVcompletedExperiment
p3305
I01
sVmeteorUserId
p3306
V8uaccRaNRhGXpk7sr
p3307
sVbreakdownEarnings
p3308
(dp3309
Vexperiment1
p3310
F0.8
sVexperiment2
p3311
F0.9000000000000001
sVhit
p3312
F0.1
sVsurvey
p3313
F0.15
sVquiz
p3314
F0.25
ssV_id
p3315
VqdYHtuSrgCqQqxeT8
p3316
sVmtAssignmentId
p3317
V38SKSKU7R1X3T5USSL2TTKFPNUBLIF
p3318
sa(dp3319
VreadyToProceed
p3320
I00
sVtsGroupId
p3321
Vundefined
p3322
sVisExperienced
p3323
I0
sVsec_rnd_stg_now
p3324
I0
sVsec_rnd_now
p3325
I0
sVquiz
p3326
(dp3327
Vfailed
p3328
I00
sVpassed
p3329
I01
sVtriesLeft
p3330
I3
ssVsec_type_now
p3331
VsubmitHIT
p3332
sVblock_now
p3333
I1
sVtsBatchId
p3334
VdpmhLMSeHeJP8wGdo
p3335
sVcohortIds
p3336
(lp3337
I87
aI90
asVtsAsstId
p3338
Vx726ZkyzXh3LsYL2S
p3339
sVtreatments
p3340
(lp3341
Vfeedback
p3342
aVnofeedback
p3343
asVmtWorkerId
p3344
VA1QCQE5XW37LN1
p3345
sVmtHitId
p3346
V32TMVRKDGNYBJ7D0N5MJ5VNJN1884Y
p3347
sVtreatment_now
p3348
Vnofeedback
p3349
sVsec_now
p3350
VsubmitHIT
p3351
sVcohort_now
p3352
I90
sVbonusEarnings
p3353
F1.8
sVHITStatus
p3354
(dp3355
VgamesPlayed
p3356
I6
sVgamesConsummated
p3357
I6
ssVcompletedExperiment
p3358
I01
sVmeteorUserId
p3359
V6bEyT9EzzmyxDjGcf
p3360
sVbreakdownEarnings
p3361
(dp3362
Vexperiment1
p3363
F0.5
sVexperiment2
p3364
F0.9000000000000001
sVhit
p3365
F0.1
sVsurvey
p3366
F0.15
sVquiz
p3367
F0.25
ssV_id
p3368
VNuyJhEdLRoG5cMBF5
p3369
sVmtAssignmentId
p3370
V3WETL7AQWT8A1D9OFVFZ8PH3IMG35B
p3371
sa(dp3372
VreadyToProceed
p3373
I00
sVtsGroupId
p3374
Vundefined
p3375
sVisExperienced
p3376
I9
sVsec_rnd_stg_now
p3377
I0
sVsec_rnd_now
p3378
I0
sVquiz
p3379
(dp3380
Vfailed
p3381
I00
sVpassed
p3382
I00
sVtriesLeft
p3383
I3
ssVsec_type_now
p3384
VsubmitHIT
p3385
sVblock_now
p3386
I1
sVtsBatchId
p3387
VdpmhLMSeHeJP8wGdo
p3388
sVcohortIds
p3389
(lp3390
I86
aI89
asVtsAsstId
p3391
VznNX2K3rjd4YfEEbA
p3392
sVtreatments
p3393
(lp3394
Vfeedback
p3395
aVnofeedback
p3396
asVmtWorkerId
p3397
VAW0MG225VXWCN
p3398
sVmtHitId
p3399
V3BPP3MA3TCKOQGUC6070JMLGKQALEC
p3400
sVtreatment_now
p3401
Vnofeedback
p3402
sVsec_now
p3403
VsubmitHIT
p3404
sVcohort_now
p3405
I89
sVbonusEarnings
p3406
F1.2000000000000002
sVHITStatus
p3407
(dp3408
VgamesPlayed
p3409
I6
sVgamesConsummated
p3410
I6
ssVcompletedExperiment
p3411
I01
sVmeteorUserId
p3412
VMqzbsNPbneyELtzkn
p3413
sVbreakdownEarnings
p3414
(dp3415
Vexperiment1
p3416
F0.5
sVexperiment2
p3417
F0.7000000000000001
sVhit
p3418
F0.1
sVsurvey
p3419
I0
sVquiz
p3420
I0
ssV_id
p3421
VHeGJTMLmgzWEDyaF3
p3422
sVmtAssignmentId
p3423
V3DI28L7YXAEENTO23SUJOQ8JXV1E1V
p3424
sa(dp3425
VreadyToProceed
p3426
I00
sVtsGroupId
p3427
Vundefined
p3428
sVisExperienced
p3429
I4
sVsec_rnd_stg_now
p3430
I0
sVsec_rnd_now
p3431
I0
sVquiz
p3432
(dp3433
Vfailed
p3434
I00
sVpassed
p3435
I00
sVtriesLeft
p3436
I3
ssVsec_type_now
p3437
VsubmitHIT
p3438
sVblock_now
p3439
I1
sVtsBatchId
p3440
VdpmhLMSeHeJP8wGdo
p3441
sVcohortIds
p3442
(lp3443
I92
aI93
asVtsAsstId
p3444
VqZB8GnFWTuZmgCPmx
p3445
sVtreatments
p3446
(lp3447
Vnofeedback
p3448
aVnofeedback
p3449
asVmtWorkerId
p3450
VA1U8RH67FLZW87
p3451
sVmtHitId
p3452
V3HXCEECSQMT61AS7L2A3Y4OUHC8YZA
p3453
sVtreatment_now
p3454
Vnofeedback
p3455
sVsec_now
p3456
VsubmitHIT
p3457
sVcohort_now
p3458
I93
sVbonusEarnings
p3459
F1.2000000000000002
sVHITStatus
p3460
(dp3461
VgamesPlayed
p3462
I6
sVgamesConsummated
p3463
I6
ssVcompletedExperiment
p3464
I01
sVmeteorUserId
p3465
VXwqKaBoZHTEiDWfFg
p3466
sVbreakdownEarnings
p3467
(dp3468
Vexperiment1
p3469
F0.9000000000000001
sVexperiment2
p3470
F0.30000000000000004
sVhit
p3471
F0.1
sVsurvey
p3472
I0
sVquiz
p3473
I0
ssV_id
p3474
V3yv82wxX7YuxLRjut
p3475
sVmtAssignmentId
p3476
V3II4UPYCOJ7XCRUJSC9EJ9Y65VTDQX
p3477
sa(dp3478
VreadyToProceed
p3479
I00
sVtsGroupId
p3480
Vundefined
p3481
sVisExperienced
p3482
I2
sVsec_rnd_stg_now
p3483
I0
sVsec_rnd_now
p3484
I0
sVquiz
p3485
(dp3486
Vfailed
p3487
I00
sVpassed
p3488
I00
sVtriesLeft
p3489
I3
ssVsec_type_now
p3490
VsubmitHIT
p3491
sVblock_now
p3492
I1
sVtsBatchId
p3493
VdpmhLMSeHeJP8wGdo
p3494
sVcohortIds
p3495
(lp3496
I92
aI96
asVtsAsstId
p3497
VXGPkpFpeYabLy3Ppk
p3498
sVtreatments
p3499
(lp3500
Vfeedback
p3501
aVnofeedback
p3502
asVmtWorkerId
p3503
VA37WXDYYT7RCZ0
p3504
sVmtHitId
p3505
V32TZXEA1OLKT87TFOKD4QL0B9WX144
p3506
sVtreatment_now
p3507
Vnofeedback
p3508
sVsec_now
p3509
VsubmitHIT
p3510
sVcohort_now
p3511
I96
sVbonusEarnings
p3512
F1.8000000000000003
sVHITStatus
p3513
(dp3514
VgamesPlayed
p3515
I6
sVgamesConsummated
p3516
I6
ssVcompletedExperiment
p3517
I01
sVmeteorUserId
p3518
V3ssf4eRR4vc6vTQoo
p3519
sVbreakdownEarnings
p3520
(dp3521
Vexperiment1
p3522
F0.9000000000000001
sVexperiment2
p3523
F0.9000000000000001
sVhit
p3524
F0.1
sVsurvey
p3525
I0
sVquiz
p3526
I0
ssV_id
p3527
VqcNbMnLwTvymqkroP
p3528
sVmtAssignmentId
p3529
V3HSYG7LRBJYJFU2Y7OB4R0HNQYYKKP
p3530
sa(dp3531
VreadyToProceed
p3532
I00
sVtsGroupId
p3533
Vundefined
p3534
sVisExperienced
p3535
I5
sVsec_rnd_stg_now
p3536
I0
sVsec_rnd_now
p3537
I0
sVquiz
p3538
(dp3539
Vfailed
p3540
I00
sVpassed
p3541
I00
sVtriesLeft
p3542
I3
ssVsec_type_now
p3543
VsubmitHIT
p3544
sVblock_now
p3545
I1
sVtsBatchId
p3546
VdpmhLMSeHeJP8wGdo
p3547
sVcohortIds
p3548
(lp3549
I94
aI96
asVtsAsstId
p3550
V2XZRyw2ofNk9utXFP
p3551
sVtreatments
p3552
(lp3553
Vfeedback
p3554
aVfeedback
p3555
asVmtWorkerId
p3556
VAB66CTVQ90RCV
p3557
sVmtHitId
p3558
V32TZXEA1OLKT87TFOKD4QL0B9WX144
p3559
sVtreatment_now
p3560
Vfeedback
p3561
sVsec_now
p3562
VsubmitHIT
p3563
sVcohort_now
p3564
I96
sVbonusEarnings
p3565
F1.8000000000000003
sVHITStatus
p3566
(dp3567
VgamesPlayed
p3568
I6
sVgamesConsummated
p3569
I6
ssVcompletedExperiment
p3570
I01
sVmeteorUserId
p3571
V3iCmJz8m82nCyz7aS
p3572
sVbreakdownEarnings
p3573
(dp3574
Vexperiment1
p3575
F0.9000000000000001
sVexperiment2
p3576
F0.9000000000000001
sVhit
p3577
F0.1
sVsurvey
p3578
I0
sVquiz
p3579
I0
ssV_id
p3580
VcdkyvWLQzuDBfXZ7T
p3581
sVmtAssignmentId
p3582
V3FE7TXL1LINA9HW3VNPXNQ72844Q21
p3583
sa(dp3584
VreadyToProceed
p3585
I00
sVtsGroupId
p3586
Vundefined
p3587
sVisExperienced
p3588
I0
sVsec_rnd_stg_now
p3589
I0
sVsec_rnd_now
p3590
I0
sVquiz
p3591
(dp3592
Vfailed
p3593
I00
sVpassed
p3594
I01
sVtriesLeft
p3595
I3
ssVsec_type_now
p3596
VsubmitHIT
p3597
sVblock_now
p3598
I1
sVtsBatchId
p3599
VdpmhLMSeHeJP8wGdo
p3600
sVcohortIds
p3601
(lp3602
I110
aI107
asVtsAsstId
p3603
VERZRFXczcvwWqGPwT
p3604
sVtreatments
p3605
(lp3606
Vnofeedback
p3607
aVfeedback
p3608
asVmtWorkerId
p3609
VA2WCV7ULUPKVNQ
p3610
sVmtHitId
p3611
V3W1K7D6QSBHAO2ZWBAWJQTQTW1RBZ5
p3612
sVtreatment_now
p3613
Vfeedback
p3614
sVsec_now
p3615
VsubmitHIT
p3616
sVcohort_now
p3617
I107
sVbonusEarnings
p3618
F1.3
sVHITStatus
p3619
(dp3620
VgamesPlayed
p3621
I6
sVgamesConsummated
p3622
I3
ssVcompletedExperiment
p3623
I01
sVmeteorUserId
p3624
VBxwkbr2gyazHnbX4v
p3625
sVbreakdownEarnings
p3626
(dp3627
Vexperiment1
p3628
I0
sVexperiment2
p3629
F0.9000000000000001
sVhit
p3630
F0.1
sVsurvey
p3631
F0.15
sVquiz
p3632
F0.25
ssV_id
p3633
VyDbFqwokKc8MjaDpY
p3634
sVmtAssignmentId
p3635
V3SKRO2GZ71RH9TGCZE5MMLLOHSVK1J
p3636
sa(dp3637
VreadyToProceed
p3638
I00
sVtsGroupId
p3639
Vundefined
p3640
sVisExperienced
p3641
I0
sVsec_rnd_stg_now
p3642
I0
sVsec_rnd_now
p3643
I0
sVquiz
p3644
(dp3645
Vfailed
p3646
I00
sVpassed
p3647
I01
sVtriesLeft
p3648
I2
ssVsec_type_now
p3649
VsubmitHIT
p3650
sVblock_now
p3651
I1
sVtsBatchId
p3652
VdpmhLMSeHeJP8wGdo
p3653
sVcohortIds
p3654
(lp3655
I98
aI97
asVtsAsstId
p3656
VHNCY8Rrq43cTdB3pY
p3657
sVtreatments
p3658
(lp3659
Vnofeedback
p3660
aVfeedback
p3661
asVmtWorkerId
p3662
VA16HSMUJ7C7QA7
p3663
sVmtHitId
p3664
V32TZXEA1OLKT87TFOKD4QL0B9WX144
p3665
sVtreatment_now
p3666
Vfeedback
p3667
sVsec_now
p3668
VsubmitHIT
p3669
sVcohort_now
p3670
I97
sVbonusEarnings
p3671
F1.5
sVHITStatus
p3672
(dp3673
VgamesPlayed
p3674
I6
sVgamesConsummated
p3675
I6
ssVcompletedExperiment
p3676
I01
sVmeteorUserId
p3677
VLPcAsukrFaGjLrBMq
p3678
sVbreakdownEarnings
p3679
(dp3680
Vexperiment1
p3681
F0.6000000000000001
sVexperiment2
p3682
F0.5
sVhit
p3683
F0.1
sVsurvey
p3684
F0.15
sVquiz
p3685
F0.25
ssV_id
p3686
VYMA8y23Gwhovmn856
p3687
sVmtAssignmentId
p3688
V3X66WABAJWI8HAY8WRYQCM8S8VVG37
p3689
sa(dp3690
VreadyToProceed
p3691
I00
sVtsGroupId
p3692
Vundefined
p3693
sVisExperienced
p3694
I1
sVsec_rnd_stg_now
p3695
I0
sVsec_rnd_now
p3696
I0
sVquiz
p3697
(dp3698
Vfailed
p3699
I00
sVpassed
p3700
I00
sVtriesLeft
p3701
I3
ssVsec_type_now
p3702
VsubmitHIT
p3703
sVblock_now
p3704
I1
sVtsBatchId
p3705
VdpmhLMSeHeJP8wGdo
p3706
sVcohortIds
p3707
(lp3708
I98
aI99
asVtsAsstId
p3709
V7ukC2XDCJ9TvYB72R
p3710
sVtreatments
p3711
(lp3712
Vfeedback
p3713
aVnofeedback
p3714
asVmtWorkerId
p3715
VA2K56J9POYUFCA
p3716
sVmtHitId
p3717
V3HXCEECSQMT61AS7L2A3Y4OUHC8YZA
p3718
sVtreatment_now
p3719
Vnofeedback
p3720
sVsec_now
p3721
VsubmitHIT
p3722
sVcohort_now
p3723
I99
sVbonusEarnings
p3724
F0.9
sVHITStatus
p3725
(dp3726
VgamesPlayed
p3727
I6
sVgamesConsummated
p3728
I6
ssVcompletedExperiment
p3729
I01
sVmeteorUserId
p3730
V4Nuz5oe9KkS3zyZ74
p3731
sVbreakdownEarnings
p3732
(dp3733
Vexperiment1
p3734
F0.5
sVexperiment2
p3735
F0.4
sVhit
p3736
F0.1
sVsurvey
p3737
I0
sVquiz
p3738
I0
ssV_id
p3739
VrcDjoEfv9JbhBqSMa
p3740
sVmtAssignmentId
p3741
V3KKG4CDWKIYEKWU4IZXZUAEBIIW94U
p3742
sa(dp3743
VreadyToProceed
p3744
I00
sVtsGroupId
p3745
Vundefined
p3746
sVisExperienced
p3747
I0
sVsec_rnd_stg_now
p3748
I0
sVsec_rnd_now
p3749
I0
sVquiz
p3750
(dp3751
Vfailed
p3752
I00
sVpassed
p3753
I01
sVtriesLeft
p3754
I3
ssVsec_type_now
p3755
VsubmitHIT
p3756
sVblock_now
p3757
I1
sVtsBatchId
p3758
VdpmhLMSeHeJP8wGdo
p3759
sVcohortIds
p3760
(lp3761
I102
aI101
asVtsAsstId
p3762
V3bf3L7k7fwK2s7Hrz
p3763
sVtreatments
p3764
(lp3765
Vnofeedback
p3766
aVfeedback
p3767
asVmtWorkerId
p3768
VA32CRWJESR6AX4
p3769
sVmtHitId
p3770
V3MVY4USGB6NNAYROMSUSGNX34AWSI7
p3771
sVtreatment_now
p3772
Vfeedback
p3773
sVsec_now
p3774
VsubmitHIT
p3775
sVcohort_now
p3776
I101
sVbonusEarnings
p3777
F1.8
sVHITStatus
p3778
(dp3779
VgamesPlayed
p3780
I6
sVgamesConsummated
p3781
I6
ssVcompletedExperiment
p3782
I01
sVmeteorUserId
p3783
VjcmBgy2ENTQD3kX54
p3784
sVbreakdownEarnings
p3785
(dp3786
Vexperiment1
p3787
F0.9000000000000001
sVexperiment2
p3788
F0.5
sVhit
p3789
F0.1
sVsurvey
p3790
F0.15
sVquiz
p3791
F0.25
ssV_id
p3792
VFzvkCnb8tRQNxQCur
p3793
sVmtAssignmentId
p3794
V3Z3ZLGNNSIUZUZSMZN3260CUEI03QL
p3795
sa(dp3796
VreadyToProceed
p3797
I00
sVtsGroupId
p3798
Vundefined
p3799
sVisExperienced
p3800
I0
sVsec_rnd_stg_now
p3801
I0
sVsec_rnd_now
p3802
I0
sVquiz
p3803
(dp3804
Vfailed
p3805
I00
sVpassed
p3806
I01
sVtriesLeft
p3807
I3
ssVsec_type_now
p3808
VsubmitHIT
p3809
sVblock_now
p3810
I1
sVtsBatchId
p3811
VdpmhLMSeHeJP8wGdo
p3812
sVcohortIds
p3813
(lp3814
I104
aI106
asVtsAsstId
p3815
VkRb3RqZbzazGbLTxT
p3816
sVtreatments
p3817
(lp3818
Vfeedback
p3819
aVnofeedback
p3820
asVmtWorkerId
p3821
VAKCH7EGJBNV43
p3822
sVmtHitId
p3823
V3JMNNNO3B14C6UUVHUJ1QWT7LROW28
p3824
sVtreatment_now
p3825
Vnofeedback
p3826
sVsec_now
p3827
VsubmitHIT
p3828
sVcohort_now
p3829
I106
sVbonusEarnings
p3830
I2
sVHITStatus
p3831
(dp3832
VgamesPlayed
p3833
I6
sVgamesConsummated
p3834
I6
ssVcompletedExperiment
p3835
I01
sVmeteorUserId
p3836
Vif5tKyhvrK4A6cCwT
p3837
sVbreakdownEarnings
p3838
(dp3839
Vexperiment1
p3840
F0.7
sVexperiment2
p3841
F0.9000000000000001
sVhit
p3842
F0.1
sVsurvey
p3843
F0.15
sVquiz
p3844
F0.25
ssV_id
p3845
VGrZZuY6A7KnpuiKpY
p3846
sVmtAssignmentId
p3847
V3X31TUMD7XMSTZYUKEHN1LY36SYL1L
p3848
sa(dp3849
VreadyToProceed
p3850
I00
sVtsGroupId
p3851
Vundefined
p3852
sVisExperienced
p3853
I0
sVsec_rnd_stg_now
p3854
I0
sVsec_rnd_now
p3855
I0
sVquiz
p3856
(dp3857
Vfailed
p3858
I00
sVpassed
p3859
I01
sVtriesLeft
p3860
I1
ssVsec_type_now
p3861
VsubmitHIT
p3862
sVblock_now
p3863
I1
sVtsBatchId
p3864
VdpmhLMSeHeJP8wGdo
p3865
sVcohortIds
p3866
(lp3867
I99
aI100
asVtsAsstId
p3868
V3Gskn67N5tiPpes3Z
p3869
sVtreatments
p3870
(lp3871
Vfeedback
p3872
aVnofeedback
p3873
asVmtWorkerId
p3874
VA2581F7TDPAMBQ
p3875
sVmtHitId
p3876
V3GS542CVJVNTTV0A62B7AJO86V959W
p3877
sVtreatment_now
p3878
Vnofeedback
p3879
sVsec_now
p3880
VsubmitHIT
p3881
sVcohort_now
p3882
I100
sVbonusEarnings
p3883
F1.5999999999999999
sVHITStatus
p3884
(dp3885
VgamesPlayed
p3886
I6
sVgamesConsummated
p3887
I6
ssVcompletedExperiment
p3888
I01
sVmeteorUserId
p3889
VwPraL5bnmRBQweuRJ
p3890
sVbreakdownEarnings
p3891
(dp3892
Vexperiment1
p3893
F0.7
sVexperiment2
p3894
F0.5
sVhit
p3895
F0.1
sVsurvey
p3896
F0.15
sVquiz
p3897
F0.25
ssV_id
p3898
Vbz32ADc8qLqzoFYMm
p3899
sVmtAssignmentId
p3900
V3JAOYWH7VI4AI41PORWGGRGM44EL9M
p3901
sa(dp3902
VreadyToProceed
p3903
I00
sVtsGroupId
p3904
Vundefined
p3905
sVisExperienced
p3906
I0
sVsec_rnd_stg_now
p3907
I0
sVsec_rnd_now
p3908
I0
sVquiz
p3909
(dp3910
Vfailed
p3911
I00
sVpassed
p3912
I01
sVtriesLeft
p3913
I3
ssVsec_type_now
p3914
VsubmitHIT
p3915
sVblock_now
p3916
I1
sVtsBatchId
p3917
VdpmhLMSeHeJP8wGdo
p3918
sVcohortIds
p3919
(lp3920
I100
aI101
asVtsAsstId
p3921
VsFDZCkZ3fwefcQRWh
p3922
sVtreatments
p3923
(lp3924
Vfeedback
p3925
aVnofeedback
p3926
asVmtWorkerId
p3927
VA40LU73SS18IW
p3928
sVmtHitId
p3929
V3SSN80MU8COMCA3BG5LRSBT8BV1KX0
p3930
sVtreatment_now
p3931
Vnofeedback
p3932
sVsec_now
p3933
VsubmitHIT
p3934
sVcohort_now
p3935
I101
sVbonusEarnings
p3936
F1.2999999999999998
sVHITStatus
p3937
(dp3938
VgamesPlayed
p3939
I6
sVgamesConsummated
p3940
I6
ssVcompletedExperiment
p3941
I01
sVmeteorUserId
p3942
VXybe53HnFXdS5DHkg
p3943
sVbreakdownEarnings
p3944
(dp3945
Vexperiment1
p3946
F0.5
sVexperiment2
p3947
F0.4
sVhit
p3948
F0.1
sVsurvey
p3949
F0.15
sVquiz
p3950
F0.25
ssV_id
p3951
Vws2HcihLENKdxn3eR
p3952
sVmtAssignmentId
p3953
V3QXNC7EIPIVXL8C3ZYAXI7OY16D90B
p3954
sa(dp3955
VreadyToProceed
p3956
I00
sVtsGroupId
p3957
Vundefined
p3958
sVisExperienced
p3959
I0
sVsec_rnd_stg_now
p3960
I0
sVsec_rnd_now
p3961
I0
sVquiz
p3962
(dp3963
Vfailed
p3964
I00
sVpassed
p3965
I01
sVtriesLeft
p3966
I3
ssVsec_type_now
p3967
VsubmitHIT
p3968
sVblock_now
p3969
I1
sVtsBatchId
p3970
VdpmhLMSeHeJP8wGdo
p3971
sVcohortIds
p3972
(lp3973
I108
aI105
asVtsAsstId
p3974
VRWenLxo2btMQuadCE
p3975
sVtreatments
p3976
(lp3977
Vnofeedback
p3978
aVfeedback
p3979
asVmtWorkerId
p3980
VA1KGCOR8OXYR72
p3981
sVmtHitId
p3982
V3ZQX1VYFTD5FN0NI6P1SJTTO3IFO8A
p3983
sVtreatment_now
p3984
Vfeedback
p3985
sVsec_now
p3986
VsubmitHIT
p3987
sVcohort_now
p3988
I105
sVbonusEarnings
p3989
F1.9000000000000001
sVHITStatus
p3990
(dp3991
VgamesPlayed
p3992
I6
sVgamesConsummated
p3993
I6
ssVcompletedExperiment
p3994
I01
sVmeteorUserId
p3995
VS7ufA6Bfff2hAjDvQ
p3996
sVbreakdownEarnings
p3997
(dp3998
Vexperiment1
p3999
F0.9000000000000001
sVexperiment2
p4000
F0.6000000000000001
sVhit
p4001
F0.1
sVsurvey
p4002
F0.15
sVquiz
p4003
F0.25
ssV_id
p4004
V3vvTPvtHyX5JiAk58
p4005
sVmtAssignmentId
p4006
V3II4UPYCOJ7XCRUJSC9EJ9Y65UCQDR
p4007
sa(dp4008
VreadyToProceed
p4009
I00
sVtsGroupId
p4010
Vundefined
p4011
sVisExperienced
p4012
I1
sVsec_rnd_stg_now
p4013
I0
sVsec_rnd_now
p4014
I0
sVquiz
p4015
(dp4016
Vfailed
p4017
I00
sVpassed
p4018
I00
sVtriesLeft
p4019
I3
ssVsec_type_now
p4020
VsubmitHIT
p4021
sVblock_now
p4022
I1
sVtsBatchId
p4023
VdpmhLMSeHeJP8wGdo
p4024
sVcohortIds
p4025
(lp4026
I105
aI103
asVtsAsstId
p4027
VbxBFnD5HkiNBkretm
p4028
sVtreatments
p4029
(lp4030
Vnofeedback
p4031
aVfeedback
p4032
asVmtWorkerId
p4033
VAMZV70TID53WY
p4034
sVmtHitId
p4035
V3Y40HMYLL1I0F68NAJPTYY26EXYUXT
p4036
sVtreatment_now
p4037
Vfeedback
p4038
sVsec_now
p4039
VsubmitHIT
p4040
sVcohort_now
p4041
I103
sVbonusEarnings
p4042
F1.6
sVHITStatus
p4043
(dp4044
VgamesPlayed
p4045
I6
sVgamesConsummated
p4046
I6
ssVcompletedExperiment
p4047
I01
sVmeteorUserId
p4048
VkGwgjkfvpkJHZfa3m
p4049
sVbreakdownEarnings
p4050
(dp4051
Vexperiment1
p4052
F0.9000000000000001
sVexperiment2
p4053
F0.7000000000000001
sVhit
p4054
F0.1
sVsurvey
p4055
I0
sVquiz
p4056
I0
ssV_id
p4057
V9MmhnHvWnZ4jCK6SW
p4058
sVmtAssignmentId
p4059
V3IHR8NYAM71ZCJABZOTWG0EQNPSP4P
p4060
sa(dp4061
VreadyToProceed
p4062
I00
sVtsGroupId
p4063
Vundefined
p4064
sVisExperienced
p4065
I1
sVsec_rnd_stg_now
p4066
I0
sVsec_rnd_now
p4067
I0
sVquiz
p4068
(dp4069
Vfailed
p4070
I00
sVpassed
p4071
I00
sVtriesLeft
p4072
I3
ssVsec_type_now
p4073
VsubmitHIT
p4074
sVblock_now
p4075
I1
sVtsBatchId
p4076
VdpmhLMSeHeJP8wGdo
p4077
sVcohortIds
p4078
(lp4079
I103
aI104
asVtsAsstId
p4080
VE4zj25JZGy3o7Ypum
p4081
sVtreatments
p4082
(lp4083
Vnofeedback
p4084
aVnofeedback
p4085
asVmtWorkerId
p4086
VAGVUHOBSCP6YC
p4087
sVmtHitId
p4088
V3Y40HMYLL1I0F68NAJPTYY26EXYUXT
p4089
sVtreatment_now
p4090
Vnofeedback
p4091
sVsec_now
p4092
VsubmitHIT
p4093
sVcohort_now
p4094
I104
sVbonusEarnings
p4095
F1.2
sVHITStatus
p4096
(dp4097
VgamesPlayed
p4098
I6
sVgamesConsummated
p4099
I6
ssVcompletedExperiment
p4100
I01
sVmeteorUserId
p4101
VuPjrKvFv3fmSN7T9g
p4102
sVbreakdownEarnings
p4103
(dp4104
Vexperiment1
p4105
F0.7
sVexperiment2
p4106
F0.5
sVhit
p4107
F0.1
sVsurvey
p4108
I0
sVquiz
p4109
I0
ssV_id
p4110
Vm97HbHL5GEGZXuwtA
p4111
sVmtAssignmentId
p4112
V3NPI0JQDAO5JT4P1EPU4O8QI3O9TPP
p4113
sa(dp4114
VreadyToProceed
p4115
I00
sVtsGroupId
p4116
Vundefined
p4117
sVisExperienced
p4118
I2
sVsec_rnd_stg_now
p4119
I0
sVsec_rnd_now
p4120
I0
sVquiz
p4121
(dp4122
Vfailed
p4123
I00
sVpassed
p4124
I00
sVtriesLeft
p4125
I3
ssVsec_type_now
p4126
VsubmitHIT
p4127
sVblock_now
p4128
I1
sVtsBatchId
p4129
VdpmhLMSeHeJP8wGdo
p4130
sVcohortIds
p4131
(lp4132
I108
aI109
asVtsAsstId
p4133
VkXu8wZuxx3WirZK2r
p4134
sVtreatments
p4135
(lp4136
Vfeedback
p4137
aVfeedback
p4138
asVmtWorkerId
p4139
VAKSJ3C5O3V9RB
p4140
sVmtHitId
p4141
V32TMVRKDGNYBJ7D0N5MJ5VNJN1884Y
p4142
sVtreatment_now
p4143
Vfeedback
p4144
sVsec_now
p4145
VsubmitHIT
p4146
sVcohort_now
p4147
I109
sVbonusEarnings
p4148
F1.8000000000000003
sVHITStatus
p4149
(dp4150
VgamesPlayed
p4151
I6
sVgamesConsummated
p4152
I6
ssVcompletedExperiment
p4153
I01
sVmeteorUserId
p4154
Vkb4uSXkyYbsvTw4pj
p4155
sVbreakdownEarnings
p4156
(dp4157
Vexperiment1
p4158
F0.9000000000000001
sVexperiment2
p4159
F0.9000000000000001
sVhit
p4160
F0.1
sVsurvey
p4161
I0
sVquiz
p4162
I0
ssV_id
p4163
VawDHTfXTAM5Ya9sM6
p4164
sVmtAssignmentId
p4165
V3LWJHTCVCCMUAB8FJI44791RH88FQ9
p4166
sa(dp4167
VreadyToProceed
p4168
I00
sVtsGroupId
p4169
Vundefined
p4170
sVisExperienced
p4171
I0
sVsec_rnd_stg_now
p4172
I0
sVsec_rnd_now
p4173
I0
sVquiz
p4174
(dp4175
Vfailed
p4176
I00
sVpassed
p4177
I01
sVtriesLeft
p4178
I3
ssVsec_type_now
p4179
VsubmitHIT
p4180
sVblock_now
p4181
I1
sVtsBatchId
p4182
VdpmhLMSeHeJP8wGdo
p4183
sVcohortIds
p4184
(lp4185
sVtsAsstId
p4186
V5Y7o7iXZRq59aJBwM
p4187
sVtreatments
p4188
(lp4189
Vnofeedback
p4190
aVnofeedback
p4191
asVmtWorkerId
p4192
VA15FXHC1CVNW31
p4193
sVmtHitId
p4194
V3IWA71V4TIGFDVIME1RQISOQ7NOX6M
p4195
sVtreatment_now
p4196
Vnofeedback
p4197
sVsec_now
p4198
VsubmitHIT
p4199
sVcohort_now
p4200
I2
sVbonusEarnings
p4201
F0.6000000000000001
sVHITStatus
p4202
(dp4203
VgamesPlayed
p4204
I6
sVgamesConsummated
p4205
I0
ssVcompletedExperiment
p4206
I01
sVmeteorUserId
p4207
VXSreo4RoaNqbKpmkK
p4208
sVbreakdownEarnings
p4209
(dp4210
Vexperiment1
p4211
I0
sVexperiment2
p4212
I0
sVhit
p4213
F0.1
sVsurvey
p4214
F0.2
sVquiz
p4215
F0.4
ssV_id
p4216
VWtW5mpEoEYQKAdDZu
p4217
sVmtAssignmentId
p4218
V3M0BCWMB8VW9HRSLQPHEG8SSQ56WB9
p4219
sa(dp4220
VreadyToProceed
p4221
I00
sVtsGroupId
p4222
Vundefined
p4223
sVisExperienced
p4224
I0
sVsec_rnd_stg_now
p4225
I0
sVsec_rnd_now
p4226
I0
sVquiz
p4227
(dp4228
Vfailed
p4229
I00
sVpassed
p4230
I01
sVtriesLeft
p4231
I3
ssVsec_type_now
p4232
VsubmitHIT
p4233
sVblock_now
p4234
I1
sVtsBatchId
p4235
VdpmhLMSeHeJP8wGdo
p4236
sVcohortIds
p4237
(lp4238
sVtsAsstId
p4239
VZAX3dhAsAj5wm8dcY
p4240
sVtreatments
p4241
(lp4242
Vnofeedback
p4243
aVfeedback
p4244
asVmtWorkerId
p4245
VA3N0QZ9ZKUCTCQ
p4246
sVmtHitId
p4247
V3IWA71V4TIGFDVIME1RQISOQ7NOX6M
p4248
sVtreatment_now
p4249
Vfeedback
p4250
sVsec_now
p4251
VsubmitHIT
p4252
sVcohort_now
p4253
I8
sVbonusEarnings
p4254
F1.3
sVcompletedExperiment
p4255
I01
sVmeteorUserId
p4256
VsjdvgdNzgau4jnYvm
p4257
sVbreakdownEarnings
p4258
(dp4259
Vexperiment1
p4260
I0
sVexperiment2
p4261
F0.7000000000000001
sVhit
p4262
F0.1
sVsurvey
p4263
F0.2
sVquiz
p4264
F0.4
ssV_id
p4265
VWJESGjd7bpBFWQwbK
p4266
sVmtAssignmentId
p4267
V3FE2ERCCZX83GCKTI885UYKV47MOPA
p4268
sa(dp4269
VreadyToProceed
p4270
I00
sVtsGroupId
p4271
Vundefined
p4272
sVisExperienced
p4273
I0
sVsec_rnd_stg_now
p4274
I0
sVsec_rnd_now
p4275
I0
sVquiz
p4276
(dp4277
Vfailed
p4278
I00
sVpassed
p4279
I01
sVtriesLeft
p4280
I3
ssVsec_type_now
p4281
VsubmitHIT
p4282
sVblock_now
p4283
I1
sVtsBatchId
p4284
VdpmhLMSeHeJP8wGdo
p4285
sVcohortIds
p4286
(lp4287
sVtsAsstId
p4288
VsJYuW4m3GsWwDRLsf
p4289
sVtreatments
p4290
(lp4291
Vnofeedback
p4292
aVfeedback
p4293
asVmtWorkerId
p4294
VA5TI9UQEPLNWI
p4295
sVmtHitId
p4296
V3P458N04Q1HRVUZLRZFNSF7ESSV2X4
p4297
sVtreatment_now
p4298
Vfeedback
p4299
sVsec_now
p4300
VsubmitHIT
p4301
sVcohort_now
p4302
I13
sVbonusEarnings
p4303
F1.2500000000000002
sVcompletedExperiment
p4304
I01
sVmeteorUserId
p4305
VNnrLFYb9Rw7duzNK6
p4306
sVbreakdownEarnings
p4307
(dp4308
Vexperiment1
p4309
I0
sVexperiment2
p4310
F0.9000000000000001
sVhit
p4311
F0.1
sVsurvey
p4312
F0.1
sVquiz
p4313
F0.25
ssV_id
p4314
VHwsAztyp6xTcw5MC8
p4315
sVmtAssignmentId
p4316
V37WLF8U1WPQCGFH95KH3HHC5PYKK6G
p4317
sa(dp4318
VreadyToProceed
p4319
I00
sVtsGroupId
p4320
Vundefined
p4321
sVisExperienced
p4322
I1
sVsec_rnd_stg_now
p4323
I0
sVsec_rnd_now
p4324
I0
sVquiz
p4325
(dp4326
Vfailed
p4327
I00
sVpassed
p4328
I00
sVtriesLeft
p4329
I3
ssVsec_type_now
p4330
VsubmitHIT
p4331
sVblock_now
p4332
I1
sVtsBatchId
p4333
VdpmhLMSeHeJP8wGdo
p4334
sVcohortIds
p4335
(lp4336
sVtsAsstId
p4337
V5CzQWiJatWysfcCSg
p4338
sVtreatments
p4339
(lp4340
Vnofeedback
p4341
aVfeedback
p4342
asVmtWorkerId
p4343
VA3N0QZ9ZKUCTCQ
p4344
sVmtHitId
p4345
V35JDMRECC4984OGBV9AK6UG8M5DGEG
p4346
sVtreatment_now
p4347
Vfeedback
p4348
sVsec_now
p4349
VsubmitHIT
p4350
sVcohort_now
p4351
I12
sVbonusEarnings
p4352
F0.4
sVcompletedExperiment
p4353
I01
sVmeteorUserId
p4354
VsjdvgdNzgau4jnYvm
p4355
sVbreakdownEarnings
p4356
(dp4357
Vexperiment1
p4358
I0
sVexperiment2
p4359
F0.4
sVhit
p4360
F0.1
sVsurvey
p4361
I0
sVquiz
p4362
I0
ssV_id
p4363
VsCj5aaz4Hv5D5hpGX
p4364
sVmtAssignmentId
p4365
V3CTOC39K37Q09VPW69MJMGCO5K47J3
p4366
sa(dp4367
VreadyToProceed
p4368
I00
sVtsGroupId
p4369
Vundefined
p4370
sVisExperienced
p4371
I1
sVsec_rnd_stg_now
p4372
I0
sVsec_rnd_now
p4373
I0
sVquiz
p4374
(dp4375
Vfailed
p4376
I00
sVpassed
p4377
I00
sVtriesLeft
p4378
I3
ssVsec_type_now
p4379
VsubmitHIT
p4380
sVblock_now
p4381
I1
sVtsBatchId
p4382
VdpmhLMSeHeJP8wGdo
p4383
sVcohortIds
p4384
(lp4385
sVtsAsstId
p4386
VhHentHZxKwXmSMrA4
p4387
sVtreatments
p4388
(lp4389
Vnofeedback
p4390
aVfeedback
p4391
asVmtWorkerId
p4392
VA5TI9UQEPLNWI
p4393
sVmtHitId
p4394
V3WRBLBQ2GR89DY1HN2B5L5E4S4FG06
p4395
sVtreatment_now
p4396
Vfeedback
p4397
sVsec_now
p4398
VsubmitHIT
p4399
sVcohort_now
p4400
I16
sVbonusEarnings
p4401
F0.5
sVcompletedExperiment
p4402
I01
sVmeteorUserId
p4403
VNnrLFYb9Rw7duzNK6
p4404
sVbreakdownEarnings
p4405
(dp4406
Vexperiment1
p4407
I0
sVexperiment2
p4408
F0.5
sVhit
p4409
F0.1
sVsurvey
p4410
I0
sVquiz
p4411
I0
ssV_id
p4412
Vi4QFcWNPdyZ9g9c6R
p4413
sVmtAssignmentId
p4414
V39N5ACM9HEN09PGNGJPNX8P699YP9X
p4415
sa(dp4416
VreadyToProceed
p4417
I00
sVtsGroupId
p4418
Vundefined
p4419
sVisExperienced
p4420
I2
sVsec_rnd_stg_now
p4421
I0
sVsec_rnd_now
p4422
I0
sVquiz
p4423
(dp4424
Vfailed
p4425
I00
sVpassed
p4426
I00
sVtriesLeft
p4427
I3
ssVsec_type_now
p4428
VsubmitHIT
p4429
sVblock_now
p4430
I1
sVtsBatchId
p4431
VdpmhLMSeHeJP8wGdo
p4432
sVcohortIds
p4433
(lp4434
sVtsAsstId
p4435
VR54fjFoknSGXReyKd
p4436
sVtreatments
p4437
(lp4438
Vfeedback
p4439
aVfeedback
p4440
asVmtWorkerId
p4441
VA3N0QZ9ZKUCTCQ
p4442
sVmtHitId
p4443
V3WRBLBQ2GR89DY1HN2B5L5E4S4FG06
p4444
sVtreatment_now
p4445
Vfeedback
p4446
sVsec_now
p4447
VsubmitHIT
p4448
sVcohort_now
p4449
I17
sVbonusEarnings
p4450
F1.6
sVcompletedExperiment
p4451
I01
sVmeteorUserId
p4452
VsjdvgdNzgau4jnYvm
p4453
sVbreakdownEarnings
p4454
(dp4455
Vexperiment1
p4456
F0.9000000000000001
sVexperiment2
p4457
F0.7000000000000001
sVhit
p4458
F0.1
sVsurvey
p4459
I0
sVquiz
p4460
I0
ssV_id
p4461
VNeY88gro6pzvTuR6J
p4462
sVmtAssignmentId
p4463
V30BXRYBRP4XJ84V7QHRA2JVQLJ9WHP
p4464
sa(dp4465
VreadyToProceed
p4466
I00
sVtsGroupId
p4467
Vundefined
p4468
sVisExperienced
p4469
I3
sVsec_rnd_stg_now
p4470
I0
sVsec_rnd_now
p4471
I0
sVquiz
p4472
(dp4473
Vfailed
p4474
I00
sVpassed
p4475
I00
sVtriesLeft
p4476
I3
ssVsec_type_now
p4477
VsubmitHIT
p4478
sVblock_now
p4479
I1
sVtsBatchId
p4480
VdpmhLMSeHeJP8wGdo
p4481
sVcohortIds
p4482
(lp4483
sVtsAsstId
p4484
VhLQg8LKEwZMfAbgeQ
p4485
sVtreatments
p4486
(lp4487
Vfeedback
p4488
aVfeedback
p4489
asVmtWorkerId
p4490
VA3N0QZ9ZKUCTCQ
p4491
sVmtHitId
p4492
V3MYASTQBG7BUP7WP2A4CUQ2PSGCDQ6
p4493
sVtreatment_now
p4494
Vfeedback
p4495
sVsec_now
p4496
VsubmitHIT
p4497
sVcohort_now
p4498
I21
sVbonusEarnings
p4499
F1.6
sVcompletedExperiment
p4500
I01
sVmeteorUserId
p4501
VsjdvgdNzgau4jnYvm
p4502
sVbreakdownEarnings
p4503
(dp4504
Vexperiment1
p4505
F0.7000000000000001
sVexperiment2
p4506
F0.9000000000000001
sVhit
p4507
F0.1
sVsurvey
p4508
I0
sVquiz
p4509
I0
ssV_id
p4510
VeZ4AuHFJQgXxEP3z9
p4511
sVmtAssignmentId
p4512
V3RXPCZQMQPBC77KT9NK7OTTVA6OG1C
p4513
sa(dp4514
VreadyToProceed
p4515
I00
sVtsGroupId
p4516
Vundefined
p4517
sVisExperienced
p4518
I4
sVsec_rnd_stg_now
p4519
I0
sVsec_rnd_now
p4520
I0
sVquiz
p4521
(dp4522
Vfailed
p4523
I00
sVpassed
p4524
I00
sVtriesLeft
p4525
I3
ssVsec_type_now
p4526
VsubmitHIT
p4527
sVblock_now
p4528
I1
sVtsBatchId
p4529
VdpmhLMSeHeJP8wGdo
p4530
sVcohortIds
p4531
(lp4532
sVtsAsstId
p4533
Va72K3FzXyPyBGt8XK
p4534
sVtreatments
p4535
(lp4536
Vfeedback
p4537
aVfeedback
p4538
asVmtWorkerId
p4539
VA3N0QZ9ZKUCTCQ
p4540
sVmtHitId
p4541
V3E6L1VR4XWMYD9R1E7L4CLOJ4SG6FD
p4542
sVtreatment_now
p4543
Vfeedback
p4544
sVsec_now
p4545
VsubmitHIT
p4546
sVcohort_now
p4547
I23
sVbonusEarnings
p4548
F1.3000000000000003
sVcompletedExperiment
p4549
I01
sVmeteorUserId
p4550
VsjdvgdNzgau4jnYvm
p4551
sVbreakdownEarnings
p4552
(dp4553
Vexperiment1
p4554
F0.9000000000000001
sVexperiment2
p4555
F0.4
sVhit
p4556
F0.1
sVsurvey
p4557
I0
sVquiz
p4558
I0
ssV_id
p4559
VKwYLkrK8ZpH9WLbsC
p4560
sVmtAssignmentId
p4561
V3EA3QWIZ4IVRCI2X1U4KFBP6H27ITF
p4562
sa(dp4563
VreadyToProceed
p4564
I00
sVtsGroupId
p4565
Vundefined
p4566
sVisExperienced
p4567
I5
sVsec_rnd_stg_now
p4568
I0
sVsec_rnd_now
p4569
I0
sVquiz
p4570
(dp4571
Vfailed
p4572
I00
sVpassed
p4573
I00
sVtriesLeft
p4574
I3
ssVsec_type_now
p4575
VsubmitHIT
p4576
sVblock_now
p4577
I1
sVtsBatchId
p4578
VdpmhLMSeHeJP8wGdo
p4579
sVcohortIds
p4580
(lp4581
I29
aI27
asVtsAsstId
p4582
VipARdAck6qvDqbocM
p4583
sVtreatments
p4584
(lp4585
Vnofeedback
p4586
aVfeedback
p4587
asVmtWorkerId
p4588
VA3N0QZ9ZKUCTCQ
p4589
sVmtHitId
p4590
V3H781YYV6TIC9T2HF99R5DVXDTUETL
p4591
sVtreatment_now
p4592
Vfeedback
p4593
sVsec_now
p4594
VsubmitHIT
p4595
sVcohort_now
p4596
I27
sVbonusEarnings
p4597
F1.3
sVHITStatus
p4598
(dp4599
VgamesPlayed
p4600
I6
sVgamesConsummated
p4601
I6
ssVcompletedExperiment
p4602
I01
sVmeteorUserId
p4603
VsjdvgdNzgau4jnYvm
p4604
sVbreakdownEarnings
p4605
(dp4606
Vexperiment1
p4607
F0.5
sVexperiment2
p4608
F0.8
sVhit
p4609
F0.1
sVsurvey
p4610
I0
sVquiz
p4611
I0
ssV_id
p4612
ViX7ayEamZWfJPrGDc
p4613
sVmtAssignmentId
p4614
V351SEKWQS0H6RCWR0J2X20E1VTEMDZ
p4615
sa(dp4616
VreadyToProceed
p4617
I00
sVtsGroupId
p4618
Vundefined
p4619
sVisExperienced
p4620
I1
sVsec_rnd_stg_now
p4621
I0
sVsec_rnd_now
p4622
I0
sVquiz
p4623
(dp4624
Vfailed
p4625
I00
sVpassed
p4626
I00
sVtriesLeft
p4627
I3
ssVsec_type_now
p4628
VsubmitHIT
p4629
sVblock_now
p4630
I1
sVtsBatchId
p4631
VdpmhLMSeHeJP8wGdo
p4632
sVcohortIds
p4633
(lp4634
sVtsAsstId
p4635
VmiTjGsEKessrtzsoL
p4636
sVtreatments
p4637
(lp4638
Vfeedback
p4639
aVfeedback
p4640
asVmtWorkerId
p4641
VA15FXHC1CVNW31
p4642
sVmtHitId
p4643
V35JDMRECC4984OGBV9AK6UG8M5DGEG
p4644
sVtreatment_now
p4645
Vfeedback
p4646
sVsec_now
p4647
VsubmitHIT
p4648
sVcohort_now
p4649
I11
sVbonusEarnings
p4650
F1.2000000000000002
sVcompletedExperiment
p4651
I01
sVmeteorUserId
p4652
VXSreo4RoaNqbKpmkK
p4653
sVbreakdownEarnings
p4654
(dp4655
Vexperiment1
p4656
F0.30000000000000004
sVexperiment2
p4657
F0.9000000000000001
sVhit
p4658
F0.1
sVsurvey
p4659
I0
sVquiz
p4660
I0
ssV_id
p4661
VgWhxQ29rSLgCATjxc
p4662
sVmtAssignmentId
p4663
V3NGMS9VZTLIXJMI652TAVAXDA16FFC
p4664
sa(dp4665
VreadyToProceed
p4666
I00
sVtsGroupId
p4667
Vundefined
p4668
sVisExperienced
p4669
I6
sVsec_rnd_stg_now
p4670
I0
sVsec_rnd_now
p4671
I0
sVquiz
p4672
(dp4673
Vfailed
p4674
I00
sVpassed
p4675
I00
sVtriesLeft
p4676
I3
ssVsec_type_now
p4677
VsubmitHIT
p4678
sVblock_now
p4679
I1
sVtsBatchId
p4680
VdpmhLMSeHeJP8wGdo
p4681
sVcohortIds
p4682
(lp4683
I30
aI28
asVtsAsstId
p4684
V7KCpD6aNN8XWSHFoA
p4685
sVtreatments
p4686
(lp4687
Vnofeedback
p4688
aVfeedback
p4689
asVmtWorkerId
p4690
VA3N0QZ9ZKUCTCQ
p4691
sVmtHitId
p4692
V3ZQX1VYFTD5FN0NI6P1SJTTO3IFO8A
p4693
sVtreatment_now
p4694
Vfeedback
p4695
sVsec_now
p4696
VsubmitHIT
p4697
sVcohort_now
p4698
I28
sVbonusEarnings
p4699
F1.8000000000000003
sVHITStatus
p4700
(dp4701
VgamesPlayed
p4702
I6
sVgamesConsummated
p4703
I6
ssVcompletedExperiment
p4704
I01
sVmeteorUserId
p4705
VsjdvgdNzgau4jnYvm
p4706
sVbreakdownEarnings
p4707
(dp4708
Vexperiment1
p4709
F0.9000000000000001
sVexperiment2
p4710
F0.9000000000000001
sVhit
p4711
F0.1
sVsurvey
p4712
I0
sVquiz
p4713
I0
ssV_id
p4714
VyLGR69uZECqfpGFu5
p4715
sVmtAssignmentId
p4716
V3QAPZX2QN4DMLOR4EPVI8KGKVZP20W
p4717
sa(dp4718
VreadyToProceed
p4719
I00
sVtsGroupId
p4720
Vundefined
p4721
sVisExperienced
p4722
I0
sVsec_rnd_stg_now
p4723
I0
sVsec_rnd_now
p4724
I0
sVquiz
p4725
(dp4726
Vfailed
p4727
I00
sVpassed
p4728
I01
sVtriesLeft
p4729
I3
ssVsec_type_now
p4730
VsubmitHIT
p4731
sVblock_now
p4732
I1
sVtsBatchId
p4733
VdpmhLMSeHeJP8wGdo
p4734
sVcohortIds
p4735
(lp4736
sVtsAsstId
p4737
VD8PfCv3v7CT5S9w6H
p4738
sVtreatments
p4739
(lp4740
Vfeedback
p4741
aVnofeedback
p4742
asVmtWorkerId
p4743
VA2A0M30DSA7ZN
p4744
sVmtHitId
p4745
V351S7I5UG9WMPWJPWEY6TU2XRFZJNV
p4746
sVtreatment_now
p4747
Vnofeedback
p4748
sVsec_now
p4749
VsubmitHIT
p4750
sVcohort_now
p4751
I7
sVbonusEarnings
p4752
F0.9000000000000001
sVHITStatus
p4753
(dp4754
VgamesPlayed
p4755
I6
sVgamesConsummated
p4756
I3
ssVcompletedExperiment
p4757
I01
sVmeteorUserId
p4758
V38pi4HxgRX27sTq4b
p4759
sVbreakdownEarnings
p4760
(dp4761
Vexperiment1
p4762
F0.30000000000000004
sVexperiment2
p4763
I0
sVhit
p4764
F0.1
sVsurvey
p4765
F0.2
sVquiz
p4766
F0.4
ssV_id
p4767
V3x55ZogH9z8rFdEqe
p4768
sVmtAssignmentId
p4769
V3VFJCI1K4ZZ00CJA7HZMUKB8E3KGR8
p4770
sa(dp4771
VreadyToProceed
p4772
I00
sVtsGroupId
p4773
Vundefined
p4774
sVisExperienced
p4775
I2
sVsec_rnd_stg_now
p4776
I0
sVsec_rnd_now
p4777
I0
sVquiz
p4778
(dp4779
Vfailed
p4780
I00
sVpassed
p4781
I00
sVtriesLeft
p4782
I3
ssVsec_type_now
p4783
VsubmitHIT
p4784
sVblock_now
p4785
I1
sVtsBatchId
p4786
VdpmhLMSeHeJP8wGdo
p4787
sVcohortIds
p4788
(lp4789
I32
aI30
asVtsAsstId
p4790
VNJpAGdk9p5wQwnQTi
p4791
sVtreatments
p4792
(lp4793
Vnofeedback
p4794
aVfeedback
p4795
asVmtWorkerId
p4796
VA15FXHC1CVNW31
p4797
sVmtHitId
p4798
V3GS542CVJVNTTV0A62B7AJO86V959W
p4799
sVtreatment_now
p4800
Vfeedback
p4801
sVsec_now
p4802
VsubmitHIT
p4803
sVcohort_now
p4804
I30
sVbonusEarnings
p4805
F1.7000000000000002
sVHITStatus
p4806
(dp4807
VgamesPlayed
p4808
I6
sVgamesConsummated
p4809
I6
ssVcompletedExperiment
p4810
I01
sVmeteorUserId
p4811
VXSreo4RoaNqbKpmkK
p4812
sVbreakdownEarnings
p4813
(dp4814
Vexperiment1
p4815
F0.9000000000000001
sVexperiment2
p4816
F0.8
sVhit
p4817
F0.1
sVsurvey
p4818
I0
sVquiz
p4819
I0
ssV_id
p4820
V5r7jsMWXHgAPR3wec
p4821
sVmtAssignmentId
p4822
V3TK8OJTYM1LY6WTQJKUJPQE306YPV4
p4823
sa(dp4824
VreadyToProceed
p4825
I00
sVtsGroupId
p4826
Vundefined
p4827
sVisExperienced
p4828
I1
sVsec_rnd_stg_now
p4829
I0
sVsec_rnd_now
p4830
I0
sVquiz
p4831
(dp4832
Vfailed
p4833
I00
sVpassed
p4834
I00
sVtriesLeft
p4835
I3
ssVsec_type_now
p4836
VsubmitHIT
p4837
sVblock_now
p4838
I1
sVtsBatchId
p4839
VdpmhLMSeHeJP8wGdo
p4840
sVcohortIds
p4841
(lp4842
I33
aI35
asVtsAsstId
p4843
VjfzzrxwKwmrj3Y9YG
p4844
sVtreatments
p4845
(lp4846
Vnofeedback
p4847
aVfeedback
p4848
asVmtWorkerId
p4849
VA2A0M30DSA7ZN
p4850
sVmtHitId
p4851
V37OPIVELUU3JE7UAZAQGVB2IHMIAHX
p4852
sVtreatment_now
p4853
Vfeedback
p4854
sVsec_now
p4855
VsubmitHIT
p4856
sVcohort_now
p4857
I35
sVbonusEarnings
p4858
F0.7
sVHITStatus
p4859
(dp4860
VgamesPlayed
p4861
I6
sVgamesConsummated
p4862
I6
ssVcompletedExperiment
p4863
I01
sVmeteorUserId
p4864
V38pi4HxgRX27sTq4b
p4865
sVbreakdownEarnings
p4866
(dp4867
Vexperiment1
p4868
F0.2
sVexperiment2
p4869
F0.5
sVhit
p4870
F0.1
sVsurvey
p4871
I0
sVquiz
p4872
I0
ssV_id
p4873
VPkDggxKnX6gNDPvpE
p4874
sVmtAssignmentId
p4875
V3X1FV8S5JXRSTJ0RG14WVH0BZFBVG6
p4876
sa(dp4877
VreadyToProceed
p4878
I00
sVtsGroupId
p4879
Vundefined
p4880
sVisExperienced
p4881
I7
sVsec_rnd_stg_now
p4882
I0
sVsec_rnd_now
p4883
I0
sVquiz
p4884
(dp4885
Vfailed
p4886
I00
sVpassed
p4887
I00
sVtriesLeft
p4888
I3
ssVsec_type_now
p4889
VsubmitHIT
p4890
sVblock_now
p4891
I1
sVtsBatchId
p4892
VdpmhLMSeHeJP8wGdo
p4893
sVcohortIds
p4894
(lp4895
I34
aI33
asVtsAsstId
p4896
VR4s5bYFH7hPH2AR7c
p4897
sVtreatments
p4898
(lp4899
Vnofeedback
p4900
aVfeedback
p4901
asVmtWorkerId
p4902
VA3N0QZ9ZKUCTCQ
p4903
sVmtHitId
p4904
V3XQ4XW3OD9CJZDDMXP90T7QME972S3
p4905
sVtreatment_now
p4906
Vfeedback
p4907
sVsec_now
p4908
VsubmitHIT
p4909
sVcohort_now
p4910
I33
sVbonusEarnings
p4911
F1.2000000000000002
sVHITStatus
p4912
(dp4913
VgamesPlayed
p4914
I6
sVgamesConsummated
p4915
I6
ssVcompletedExperiment
p4916
I01
sVmeteorUserId
p4917
VsjdvgdNzgau4jnYvm
p4918
sVbreakdownEarnings
p4919
(dp4920
Vexperiment1
p4921
F0.8
sVexperiment2
p4922
F0.4
sVhit
p4923
F0.1
sVsurvey
p4924
I0
sVquiz
p4925
I0
ssV_id
p4926
VYe4iNf3wWwjSqf4XT
p4927
sVmtAssignmentId
p4928
V3UOUJI6MTDE32Q6H0LUVNHYNOYYXUB
p4929
sa(dp4930
VreadyToProceed
p4931
I00
sVtsGroupId
p4932
Vundefined
p4933
sVisExperienced
p4934
I0
sVsec_rnd_stg_now
p4935
I0
sVsec_rnd_now
p4936
I0
sVquiz
p4937
(dp4938
Vfailed
p4939
I00
sVpassed
p4940
I01
sVtriesLeft
p4941
I3
ssVsec_type_now
p4942
VsubmitHIT
p4943
sVblock_now
p4944
I1
sVtsBatchId
p4945
VdpmhLMSeHeJP8wGdo
p4946
sVcohortIds
p4947
(lp4948
I53
aI57
asVtsAsstId
p4949
V7qNt4jFCxXQA5k7uy
p4950
sVtreatments
p4951
(lp4952
Vfeedback
p4953
aVnofeedback
p4954
asVmtWorkerId
p4955
VA2O7H7VXLFN6BP
p4956
sVmtHitId
p4957
V3XQ4XW3OD9CJZDDMXP90T7QME972S3
p4958
sVtreatment_now
p4959
Vnofeedback
p4960
sVsec_now
p4961
VsubmitHIT
p4962
sVcohort_now
p4963
I57
sVbonusEarnings
p4964
F2.2
sVHITStatus
p4965
(dp4966
VgamesPlayed
p4967
I6
sVgamesConsummated
p4968
I6
ssVcompletedExperiment
p4969
I01
sVmeteorUserId
p4970
VoQAW8iMEQc5Di6PiM
p4971
sVbreakdownEarnings
p4972
(dp4973
Vexperiment1
p4974
F0.9000000000000001
sVexperiment2
p4975
F0.9000000000000001
sVhit
p4976
F0.1
sVsurvey
p4977
F0.15
sVquiz
p4978
F0.25
ssV_id
p4979
VNkHWeKa3Cwtm892w7
p4980
sVmtAssignmentId
p4981
V3Z3ZLGNNSIUZUZSMZN3260CUEIRQ3Z
p4982
sa(dp4983
VreadyToProceed
p4984
I00
sVtsGroupId
p4985
Vundefined
p4986
sVisExperienced
p4987
I8
sVsec_rnd_stg_now
p4988
I0
sVsec_rnd_now
p4989
I0
sVquiz
p4990
(dp4991
Vfailed
p4992
I00
sVpassed
p4993
I00
sVtriesLeft
p4994
I3
ssVsec_type_now
p4995
VsubmitHIT
p4996
sVblock_now
p4997
I1
sVtsBatchId
p4998
VdpmhLMSeHeJP8wGdo
p4999
sVcohortIds
p5000
(lp5001
I50
aI58
asVtsAsstId
p5002
VB5LApBpnagt8BcTSX
p5003
sVtreatments
p5004
(lp5005
Vfeedback
p5006
aVfeedback
p5007
asVmtWorkerId
p5008
VA3N0QZ9ZKUCTCQ
p5009
sVmtHitId
p5010
V3YLPJ8OXX8D1Y8E8VDYBLU4CD254X9
p5011
sVtreatment_now
p5012
Vfeedback
p5013
sVsec_now
p5014
VsubmitHIT
p5015
sVcohort_now
p5016
I58
sVbonusEarnings
p5017
F1.5000000000000002
sVHITStatus
p5018
(dp5019
VgamesPlayed
p5020
I6
sVgamesConsummated
p5021
I6
ssVcompletedExperiment
p5022
I01
sVmeteorUserId
p5023
VsjdvgdNzgau4jnYvm
p5024
sVbreakdownEarnings
p5025
(dp5026
Vexperiment1
p5027
F0.6000000000000001
sVexperiment2
p5028
F0.9000000000000001
sVhit
p5029
F0.1
sVsurvey
p5030
I0
sVquiz
p5031
I0
ssV_id
p5032
Vii8pRqxZKMhmei2zJ
p5033
sVmtAssignmentId
p5034
V3W2LOLRXLBF52YFTX8K1SC31LQFKR5
p5035
sa(dp5036
VreadyToProceed
p5037
I00
sVtsGroupId
p5038
Vundefined
p5039
sVisExperienced
p5040
I0
sVsec_rnd_stg_now
p5041
I0
sVsec_rnd_now
p5042
I0
sVquiz
p5043
(dp5044
Vfailed
p5045
I00
sVpassed
p5046
I01
sVtriesLeft
p5047
I3
ssVsec_type_now
p5048
VsubmitHIT
p5049
sVblock_now
p5050
I1
sVtsBatchId
p5051
VdpmhLMSeHeJP8wGdo
p5052
sVcohortIds
p5053
(lp5054
I40
aI38
asVtsAsstId
p5055
VR5kQuNq5SyhBy3NqK
p5056
sVtreatments
p5057
(lp5058
Vnofeedback
p5059
aVfeedback
p5060
asVmtWorkerId
p5061
VAADDOP3FHMAV1
p5062
sVmtHitId
p5063
V3GVPRXWRPHU1R07WYPWHLW17GRR7IW
p5064
sVtreatment_now
p5065
Vfeedback
p5066
sVsec_now
p5067
VsubmitHIT
p5068
sVcohort_now
p5069
I38
sVbonusEarnings
p5070
F1.4
sVHITStatus
p5071
(dp5072
VgamesPlayed
p5073
I6
sVgamesConsummated
p5074
I6
ssVcompletedExperiment
p5075
I01
sVmeteorUserId
p5076
VXkTHcAFJPDLDnrAZK
p5077
sVbreakdownEarnings
p5078
(dp5079
Vexperiment1
p5080
F0.6000000000000001
sVexperiment2
p5081
F0.4
sVhit
p5082
F0.1
sVsurvey
p5083
F0.15
sVquiz
p5084
F0.25
ssV_id
p5085
VGFT7X53vS7sYPcf7W
p5086
sVmtAssignmentId
p5087
V3WLEIWSYHOHXWOX0CX23ECF1HHW2H5
p5088
sa(dp5089
VreadyToProceed
p5090
I00
sVtsGroupId
p5091
Vundefined
p5092
sVisExperienced
p5093
I0
sVsec_rnd_stg_now
p5094
I0
sVsec_rnd_now
p5095
I0
sVquiz
p5096
(dp5097
Vfailed
p5098
I00
sVpassed
p5099
I01
sVtriesLeft
p5100
I3
ssVsec_type_now
p5101
VsubmitHIT
p5102
sVblock_now
p5103
I1
sVtsBatchId
p5104
VdpmhLMSeHeJP8wGdo
p5105
sVcohortIds
p5106
(lp5107
I63
aI67
asVtsAsstId
p5108
VQbpPvNMTajWivhfAM
p5109
sVtreatments
p5110
(lp5111
Vfeedback
p5112
aVnofeedback
p5113
asVmtWorkerId
p5114
VAW0MG225VXWCN
p5115
sVmtHitId
p5116
V3JMNNNO3B14C6UUVHUJ1QWT7LROW28
p5117
sVtreatment_now
p5118
Vnofeedback
p5119
sVsec_now
p5120
VsubmitHIT
p5121
sVcohort_now
p5122
I67
sVbonusEarnings
p5123
F1.9000000000000001
sVHITStatus
p5124
(dp5125
VgamesPlayed
p5126
I6
sVgamesConsummated
p5127
I6
ssVcompletedExperiment
p5128
I01
sVmeteorUserId
p5129
VMqzbsNPbneyELtzkn
p5130
sVbreakdownEarnings
p5131
(dp5132
Vexperiment1
p5133
F0.9000000000000001
sVexperiment2
p5134
F0.6000000000000001
sVhit
p5135
F0.1
sVsurvey
p5136
F0.15
sVquiz
p5137
F0.25
ssV_id
p5138
VQQ8itzsGhNk9rvgoo
p5139
sVmtAssignmentId
p5140
V3JWH6J9I9SDJUXJ7YOQRKPF1XZPNB8
p5141
sa(dp5142
VreadyToProceed
p5143
I00
sVtsGroupId
p5144
Vundefined
p5145
sVisExperienced
p5146
I1
sVsec_rnd_stg_now
p5147
I0
sVsec_rnd_now
p5148
I0
sVquiz
p5149
(dp5150
Vfailed
p5151
I00
sVpassed
p5152
I00
sVtriesLeft
p5153
I3
ssVsec_type_now
p5154
VsubmitHIT
p5155
sVblock_now
p5156
I1
sVtsBatchId
p5157
VdpmhLMSeHeJP8wGdo
p5158
sVcohortIds
p5159
(lp5160
I64
aI65
asVtsAsstId
p5161
VgssjqRj7uyKipN9Pf
p5162
sVtreatments
p5163
(lp5164
Vfeedback
p5165
aVfeedback
p5166
asVmtWorkerId
p5167
VAW0MG225VXWCN
p5168
sVmtHitId
p5169
V3QTFNPMJC6ICPBOTE01SHOQNDP3ZNE
p5170
sVtreatment_now
p5171
Vfeedback
p5172
sVsec_now
p5173
VsubmitHIT
p5174
sVcohort_now
p5175
I65
sVbonusEarnings
p5176
F0.9000000000000001
sVHITStatus
p5177
(dp5178
VgamesPlayed
p5179
I6
sVgamesConsummated
p5180
I6
ssVcompletedExperiment
p5181
I01
sVmeteorUserId
p5182
VMqzbsNPbneyELtzkn
p5183
sVbreakdownEarnings
p5184
(dp5185
Vexperiment1
p5186
F0.30000000000000004
sVexperiment2
p5187
F0.6000000000000001
sVhit
p5188
F0.1
sVsurvey
p5189
I0
sVquiz
p5190
I0
ssV_id
p5191
V5xurem3qwT2BkL7JG
p5192
sVmtAssignmentId
p5193
V3WRFBPLXRAOER2FUJVBL26HP97DN3I
p5194
sa(dp5195
VreadyToProceed
p5196
I00
sVtsGroupId
p5197
Vundefined
p5198
sVisExperienced
p5199
I0
sVsec_rnd_stg_now
p5200
I0
sVsec_rnd_now
p5201
I0
sVquiz
p5202
(dp5203
Vfailed
p5204
I00
sVpassed
p5205
I01
sVtriesLeft
p5206
I3
ssVsec_type_now
p5207
VsubmitHIT
p5208
sVblock_now
p5209
I1
sVtsBatchId
p5210
VdpmhLMSeHeJP8wGdo
p5211
sVcohortIds
p5212
(lp5213
I68
aI67
asVtsAsstId
p5214
Vt7PiASxcnuNqxn9ZE
p5215
sVtreatments
p5216
(lp5217
Vnofeedback
p5218
aVfeedback
p5219
asVmtWorkerId
p5220
VA1U8RH67FLZW87
p5221
sVmtHitId
p5222
V3MVY4USGB6NNAYROMSUSGNX34AWSI7
p5223
sVtreatment_now
p5224
Vfeedback
p5225
sVsec_now
p5226
VsubmitHIT
p5227
sVcohort_now
p5228
I67
sVbonusEarnings
p5229
I2
sVHITStatus
p5230
(dp5231
VgamesPlayed
p5232
I6
sVgamesConsummated
p5233
I6
ssVcompletedExperiment
p5234
I01
sVmeteorUserId
p5235
VXwqKaBoZHTEiDWfFg
p5236
sVbreakdownEarnings
p5237
(dp5238
Vexperiment1
p5239
F0.7
sVexperiment2
p5240
F0.9000000000000001
sVhit
p5241
F0.1
sVsurvey
p5242
F0.15
sVquiz
p5243
F0.25
ssV_id
p5244
VuErHZT3pJMnt4vHr2
p5245
sVmtAssignmentId
p5246
V3TPZPLC3M0CEUNR7ZAOD6VMK9ME3PU
p5247
sa(dp5248
VreadyToProceed
p5249
I00
sVtsGroupId
p5250
Vundefined
p5251
sVisExperienced
p5252
I2
sVsec_rnd_stg_now
p5253
I0
sVsec_rnd_now
p5254
I0
sVquiz
p5255
(dp5256
Vfailed
p5257
I00
sVpassed
p5258
I00
sVtriesLeft
p5259
I3
ssVsec_type_now
p5260
VsubmitHIT
p5261
sVblock_now
p5262
I1
sVtsBatchId
p5263
VdpmhLMSeHeJP8wGdo
p5264
sVcohortIds
p5265
(lp5266
I72
aI69
asVtsAsstId
p5267
VsrZW5ictjcxRkFqAm
p5268
sVtreatments
p5269
(lp5270
Vnofeedback
p5271
aVfeedback
p5272
asVmtWorkerId
p5273
VAW0MG225VXWCN
p5274
sVmtHitId
p5275
V3KTZHH2ONIFRNX26T9MFRP4J9Q0M8A
p5276
sVtreatment_now
p5277
Vfeedback
p5278
sVsec_now
p5279
VsubmitHIT
p5280
sVcohort_now
p5281
I69
sVbonusEarnings
p5282
F1.7000000000000002
sVHITStatus
p5283
(dp5284
VgamesPlayed
p5285
I6
sVgamesConsummated
p5286
I6
ssVcompletedExperiment
p5287
I01
sVmeteorUserId
p5288
VMqzbsNPbneyELtzkn
p5289
sVbreakdownEarnings
p5290
(dp5291
Vexperiment1
p5292
F0.8
sVexperiment2
p5293
F0.9000000000000001
sVhit
p5294
F0.1
sVsurvey
p5295
I0
sVquiz
p5296
I0
ssV_id
p5297
VuBBEcewCdRnBMvffK
p5298
sVmtAssignmentId
p5299
V3TVRFO09GKF0J0JNR72UWU24B7ELXE
p5300
sa(dp5301
VreadyToProceed
p5302
I00
sVtsGroupId
p5303
Vundefined
p5304
sVisExperienced
p5305
I3
sVsec_rnd_stg_now
p5306
I0
sVsec_rnd_now
p5307
I0
sVquiz
p5308
(dp5309
Vfailed
p5310
I00
sVpassed
p5311
I00
sVtriesLeft
p5312
I3
ssVsec_type_now
p5313
VsubmitHIT
p5314
sVblock_now
p5315
I1
sVtsBatchId
p5316
VdpmhLMSeHeJP8wGdo
p5317
sVcohortIds
p5318
(lp5319
I76
aI75
asVtsAsstId
p5320
VokKfTTKgww5cP2rcQ
p5321
sVtreatments
p5322
(lp5323
Vnofeedback
p5324
aVfeedback
p5325
asVmtWorkerId
p5326
VAW0MG225VXWCN
p5327
sVmtHitId
p5328
V3SSN80MU8COMCA3BG5LRSBT8BV1KX0
p5329
sVtreatment_now
p5330
Vfeedback
p5331
sVsec_now
p5332
VsubmitHIT
p5333
sVcohort_now
p5334
I75
sVbonusEarnings
p5335
F1.6
sVHITStatus
p5336
(dp5337
VgamesPlayed
p5338
I6
sVgamesConsummated
p5339
I6
ssVcompletedExperiment
p5340
I01
sVmeteorUserId
p5341
VMqzbsNPbneyELtzkn
p5342
sVbreakdownEarnings
p5343
(dp5344
Vexperiment1
p5345
F0.7
sVexperiment2
p5346
F0.9000000000000001
sVhit
p5347
F0.1
sVsurvey
p5348
I0
sVquiz
p5349
I0
ssV_id
p5350
VjwTx3auzW4GDGH99Y
p5351
sVmtAssignmentId
p5352
V34Z02EIMISDG5NLHX4FE97PAVDH0T3
p5353
sa(dp5354
VreadyToProceed
p5355
I00
sVtsGroupId
p5356
Vundefined
p5357
sVisExperienced
p5358
I1
sVsec_rnd_stg_now
p5359
I0
sVsec_rnd_now
p5360
I0
sVquiz
p5361
(dp5362
Vfailed
p5363
I00
sVpassed
p5364
I00
sVtriesLeft
p5365
I3
ssVsec_type_now
p5366
VsubmitHIT
p5367
sVblock_now
p5368
I1
sVtsBatchId
p5369
VdpmhLMSeHeJP8wGdo
p5370
sVcohortIds
p5371
(lp5372
I72
aI73
asVtsAsstId
p5373
VY8FvcBbqjrkD6TQ5p
p5374
sVtreatments
p5375
(lp5376
Vfeedback
p5377
aVfeedback
p5378
asVmtWorkerId
p5379
VA1U8RH67FLZW87
p5380
sVmtHitId
p5381
V3W1K7D6QSBHAO2ZWBAWJQTQTW1RBZ5
p5382
sVtreatment_now
p5383
Vfeedback
p5384
sVsec_now
p5385
VsubmitHIT
p5386
sVcohort_now
p5387
I73
sVbonusEarnings
p5388
F1.8000000000000003
sVHITStatus
p5389
(dp5390
VgamesPlayed
p5391
I6
sVgamesConsummated
p5392
I6
ssVcompletedExperiment
p5393
I01
sVmeteorUserId
p5394
VXwqKaBoZHTEiDWfFg
p5395
sVbreakdownEarnings
p5396
(dp5397
Vexperiment1
p5398
F0.9000000000000001
sVexperiment2
p5399
F0.9000000000000001
sVhit
p5400
F0.1
sVsurvey
p5401
I0
sVquiz
p5402
I0
ssV_id
p5403
VDb8wA97MaTeTEki4M
p5404
sVmtAssignmentId
p5405
V3TY7ZAOG5FKH24VU3V1M8G2EC0PK0G
p5406
sa(dp5407
VreadyToProceed
p5408
I00
sVtsGroupId
p5409
Vundefined
p5410
sVisExperienced
p5411
I0
sVsec_rnd_stg_now
p5412
I0
sVsec_rnd_now
p5413
I0
sVquiz
p5414
(dp5415
Vfailed
p5416
I00
sVpassed
p5417
I01
sVtriesLeft
p5418
I3
ssVsec_type_now
p5419
VsubmitHIT
p5420
sVblock_now
p5421
I1
sVtsBatchId
p5422
VdpmhLMSeHeJP8wGdo
p5423
sVcohortIds
p5424
(lp5425
I74
aI71
asVtsAsstId
p5426
Vvt5X2FathWQcZYu67
p5427
sVtreatments
p5428
(lp5429
Vnofeedback
p5430
aVfeedback
p5431
asVmtWorkerId
p5432
VAB66CTVQ90RCV
p5433
sVmtHitId
p5434
V3KTZHH2ONIFRNX26T9MFRP4J9Q0M8A
p5435
sVtreatment_now
p5436
Vfeedback
p5437
sVsec_now
p5438
VsubmitHIT
p5439
sVcohort_now
p5440
I71
sVbonusEarnings
p5441
F2.2
sVHITStatus
p5442
(dp5443
VgamesPlayed
p5444
I6
sVgamesConsummated
p5445
I6
ssVcompletedExperiment
p5446
I01
sVmeteorUserId
p5447
V3iCmJz8m82nCyz7aS
p5448
sVbreakdownEarnings
p5449
(dp5450
Vexperiment1
p5451
F0.9000000000000001
sVexperiment2
p5452
F0.9000000000000001
sVhit
p5453
F0.1
sVsurvey
p5454
F0.15
sVquiz
p5455
F0.25
ssV_id
p5456
VTkhFTpQuSeHZZod8T
p5457
sVmtAssignmentId
p5458
V384PI804XS1FQN8284AOZ2TOTU20SD
p5459
sa(dp5460
VreadyToProceed
p5461
I00
sVtsGroupId
p5462
Vundefined
p5463
sVisExperienced
p5464
I4
sVsec_rnd_stg_now
p5465
I0
sVsec_rnd_now
p5466
I0
sVquiz
p5467
(dp5468
Vfailed
p5469
I00
sVpassed
p5470
I00
sVtriesLeft
p5471
I3
ssVsec_type_now
p5472
VsubmitHIT
p5473
sVblock_now
p5474
I1
sVtsBatchId
p5475
VdpmhLMSeHeJP8wGdo
p5476
sVcohortIds
p5477
(lp5478
I77
aI78
asVtsAsstId
p5479
VbEtKqgducNJm4TB4b
p5480
sVtreatments
p5481
(lp5482
Vnofeedback
p5483
aVnofeedback
p5484
asVmtWorkerId
p5485
VAW0MG225VXWCN
p5486
sVmtHitId
p5487
V3W1K7D6QSBHAO2ZWBAWJQTQTW1RBZ5
p5488
sVtreatment_now
p5489
Vnofeedback
p5490
sVsec_now
p5491
VsubmitHIT
p5492
sVcohort_now
p5493
I78
sVbonusEarnings
p5494
F0.7000000000000001
sVHITStatus
p5495
(dp5496
VgamesPlayed
p5497
I6
sVgamesConsummated
p5498
I6
ssVcompletedExperiment
p5499
I01
sVmeteorUserId
p5500
VMqzbsNPbneyELtzkn
p5501
sVbreakdownEarnings
p5502
(dp5503
Vexperiment1
p5504
F0.7000000000000001
sVexperiment2
p5505
I0
sVhit
p5506
F0.1
sVsurvey
p5507
I0
sVquiz
p5508
I0
ssV_id
p5509
VKdR8ijjW4CR2M9mpL
p5510
sVmtAssignmentId
p5511
V3WYP994K17R70K6Q9ZIUQPRGNIKY6Q
p5512
sa(dp5513
VreadyToProceed
p5514
I00
sVtsGroupId
p5515
Vundefined
p5516
sVisExperienced
p5517
I1
sVsec_rnd_stg_now
p5518
I0
sVsec_rnd_now
p5519
I0
sVquiz
p5520
(dp5521
Vfailed
p5522
I00
sVpassed
p5523
I00
sVtriesLeft
p5524
I3
ssVsec_type_now
p5525
VsubmitHIT
p5526
sVblock_now
p5527
I1
sVtsBatchId
p5528
VdpmhLMSeHeJP8wGdo
p5529
sVcohortIds
p5530
(lp5531
I79
aI78
asVtsAsstId
p5532
V9d9JhRXbupmdzcTxj
p5533
sVtreatments
p5534
(lp5535
Vnofeedback
p5536
aVfeedback
p5537
asVmtWorkerId
p5538
VAB66CTVQ90RCV
p5539
sVmtHitId
p5540
V3G9UA71JVVUXMBR2G7HHXXG7UDA7JH
p5541
sVtreatment_now
p5542
Vfeedback
p5543
sVsec_now
p5544
VsubmitHIT
p5545
sVcohort_now
p5546
I78
sVbonusEarnings
p5547
F0.9
sVHITStatus
p5548
(dp5549
VgamesPlayed
p5550
I6
sVgamesConsummated
p5551
I6
ssVcompletedExperiment
p5552
I01
sVmeteorUserId
p5553
V3iCmJz8m82nCyz7aS
p5554
sVbreakdownEarnings
p5555
(dp5556
Vexperiment1
p5557
F0.8
sVexperiment2
p5558
F0.1
sVhit
p5559
F0.1
sVsurvey
p5560
I0
sVquiz
p5561
I0
ssV_id
p5562
VXi7taoiZ6ibGR2eCv
p5563
sVmtAssignmentId
p5564
V3QBD8R3Z21JHRJYAKOGHR090DHGO4L
p5565
sa(dp5566
VreadyToProceed
p5567
I00
sVtsGroupId
p5568
Vundefined
p5569
sVisExperienced
p5570
I5
sVsec_rnd_stg_now
p5571
I0
sVsec_rnd_now
p5572
I0
sVquiz
p5573
(dp5574
Vfailed
p5575
I00
sVpassed
p5576
I00
sVtriesLeft
p5577
I3
ssVsec_type_now
p5578
VsubmitHIT
p5579
sVblock_now
p5580
I1
sVtsBatchId
p5581
VdpmhLMSeHeJP8wGdo
p5582
sVcohortIds
p5583
(lp5584
I79
aI80
asVtsAsstId
p5585
VqDWPXwvPFAWrHFeRL
p5586
sVtreatments
p5587
(lp5588
Vfeedback
p5589
aVnofeedback
p5590
asVmtWorkerId
p5591
VAW0MG225VXWCN
p5592
sVmtHitId
p5593
V3G9UA71JVVUXMBR2G7HHXXG7UDA7JH
p5594
sVtreatment_now
p5595
Vnofeedback
p5596
sVsec_now
p5597
VsubmitHIT
p5598
sVcohort_now
p5599
I80
sVbonusEarnings
p5600
F1.7000000000000002
sVHITStatus
p5601
(dp5602
VgamesPlayed
p5603
I6
sVgamesConsummated
p5604
I6
ssVcompletedExperiment
p5605
I01
sVmeteorUserId
p5606
VMqzbsNPbneyELtzkn
p5607
sVbreakdownEarnings
p5608
(dp5609
Vexperiment1
p5610
F0.9000000000000001
sVexperiment2
p5611
F0.8
sVhit
p5612
F0.1
sVsurvey
p5613
I0
sVquiz
p5614
I0
ssV_id
p5615
VGjRRNxR2hmngKKgPo
p5616
sVmtAssignmentId
p5617
V3I3WADAZ9Q4ZN22AYTZRWSFEDDBO5Q
p5618
sa(dp5619
VreadyToProceed
p5620
I00
sVtsGroupId
p5621
Vundefined
p5622
sVisExperienced
p5623
I2
sVsec_rnd_stg_now
p5624
I0
sVsec_rnd_now
p5625
I0
sVquiz
p5626
(dp5627
Vfailed
p5628
I00
sVpassed
p5629
I00
sVtriesLeft
p5630
I3
ssVsec_type_now
p5631
VsubmitHIT
p5632
sVblock_now
p5633
I1
sVtsBatchId
p5634
VdpmhLMSeHeJP8wGdo
p5635
sVcohortIds
p5636
(lp5637
I76
aI77
asVtsAsstId
p5638
VF4fyQ9atsFbChgjLL
p5639
sVtreatments
p5640
(lp5641
Vfeedback
p5642
aVfeedback
p5643
asVmtWorkerId
p5644
VA1U8RH67FLZW87
p5645
sVmtHitId
p5646
V3G9UA71JVVUXMBR2G7HHXXG7UDA7JH
p5647
sVtreatment_now
p5648
Vfeedback
p5649
sVsec_now
p5650
VsubmitHIT
p5651
sVcohort_now
p5652
I77
sVbonusEarnings
p5653
F1.0000000000000002
sVHITStatus
p5654
(dp5655
VgamesPlayed
p5656
I6
sVgamesConsummated
p5657
I6
ssVcompletedExperiment
p5658
I01
sVmeteorUserId
p5659
VXwqKaBoZHTEiDWfFg
p5660
sVbreakdownEarnings
p5661
(dp5662
Vexperiment1
p5663
F0.1
sVexperiment2
p5664
F0.9000000000000001
sVhit
p5665
F0.1
sVsurvey
p5666
I0
sVquiz
p5667
I0
ssV_id
p5668
Vckp5vF5N7fkbmHNpa
p5669
sVmtAssignmentId
p5670
V3AMYWKA6YBMV662O3C9WOYTE98MO66
p5671
sa(dp5672
VreadyToProceed
p5673
I00
sVtsGroupId
p5674
Vundefined
p5675
sVisExperienced
p5676
I6
sVsec_rnd_stg_now
p5677
I0
sVsec_rnd_now
p5678
I0
sVquiz
p5679
(dp5680
Vfailed
p5681
I00
sVpassed
p5682
I00
sVtriesLeft
p5683
I3
ssVsec_type_now
p5684
VsubmitHIT
p5685
sVblock_now
p5686
I1
sVtsBatchId
p5687
VdpmhLMSeHeJP8wGdo
p5688
sVcohortIds
p5689
(lp5690
I81
aI82
asVtsAsstId
p5691
VSk5rE7SfXSQLDhBuj
p5692
sVtreatments
p5693
(lp5694
Vnofeedback
p5695
aVnofeedback
p5696
asVmtWorkerId
p5697
VAW0MG225VXWCN
p5698
sVmtHitId
p5699
V35O6H0UNLSGIZ7DJSE2KZD2B37F5J0
p5700
sVtreatment_now
p5701
Vnofeedback
p5702
sVsec_now
p5703
VsubmitHIT
p5704
sVcohort_now
p5705
I82
sVbonusEarnings
p5706
F1.5000000000000002
sVHITStatus
p5707
(dp5708
VgamesPlayed
p5709
I6
sVgamesConsummated
p5710
I6
ssVcompletedExperiment
p5711
I01
sVmeteorUserId
p5712
VMqzbsNPbneyELtzkn
p5713
sVbreakdownEarnings
p5714
(dp5715
Vexperiment1
p5716
F0.9000000000000001
sVexperiment2
p5717
F0.6000000000000001
sVhit
p5718
F0.1
sVsurvey
p5719
I0
sVquiz
p5720
I0
ssV_id
p5721
VmKQQJf5eg92E9qNGC
p5722
sVmtAssignmentId
p5723
V3TOK3KHVJTIEA6GTMMEOUCTA4J6O75
p5724
sa(dp5725
VreadyToProceed
p5726
I00
sVtsGroupId
p5727
Vundefined
p5728
sVisExperienced
p5729
I7
sVsec_rnd_stg_now
p5730
I0
sVsec_rnd_now
p5731
I0
sVquiz
p5732
(dp5733
Vfailed
p5734
I00
sVpassed
p5735
I00
sVtriesLeft
p5736
I3
ssVsec_type_now
p5737
VsubmitHIT
p5738
sVblock_now
p5739
I1
sVtsBatchId
p5740
VdpmhLMSeHeJP8wGdo
p5741
sVcohortIds
p5742
(lp5743
I84
aI87
asVtsAsstId
p5744
VGRvzpLKCwGrv2jsPi
p5745
sVtreatments
p5746
(lp5747
Vfeedback
p5748
aVnofeedback
p5749
asVmtWorkerId
p5750
VAW0MG225VXWCN
p5751
sVmtHitId
p5752
V31ODACBENUF0RWF7Z0Z1PPOPVNWSQZ
p5753
sVtreatment_now
p5754
Vnofeedback
p5755
sVsec_now
p5756
VsubmitHIT
p5757
sVcohort_now
p5758
I87
sVbonusEarnings
p5759
F1.8000000000000003
sVHITStatus
p5760
(dp5761
VgamesPlayed
p5762
I6
sVgamesConsummated
p5763
I6
ssVcompletedExperiment
p5764
I01
sVmeteorUserId
p5765
VMqzbsNPbneyELtzkn
p5766
sVbreakdownEarnings
p5767
(dp5768
Vexperiment1
p5769
F0.9000000000000001
sVexperiment2
p5770
F0.9000000000000001
sVhit
p5771
F0.1
sVsurvey
p5772
I0
sVquiz
p5773
I0
ssV_id
p5774
VAXx2yTnrRELtHeogG
p5775
sVmtAssignmentId
p5776
V3FTOP5WARFOMRKPCLA1A7121XBR0JZ
p5777
sa(dp5778
VreadyToProceed
p5779
I00
sVtsGroupId
p5780
Vundefined
p5781
sVisExperienced
p5782
I8
sVsec_rnd_stg_now
p5783
I0
sVsec_rnd_now
p5784
I0
sVquiz
p5785
(dp5786
Vfailed
p5787
I00
sVpassed
p5788
I00
sVtriesLeft
p5789
I3
ssVsec_type_now
p5790
VsubmitHIT
p5791
sVblock_now
p5792
I1
sVtsBatchId
p5793
VdpmhLMSeHeJP8wGdo
p5794
sVcohortIds
p5795
(lp5796
I85
aI88
asVtsAsstId
p5797
VNwd76YagBJbDSxzDS
p5798
sVtreatments
p5799
(lp5800
Vfeedback
p5801
aVnofeedback
p5802
asVmtWorkerId
p5803
VAW0MG225VXWCN
p5804
sVmtHitId
p5805
V32TMVRKDGNYBJ7D0N5MJ5VNJN1884Y
p5806
sVtreatment_now
p5807
Vnofeedback
p5808
sVsec_now
p5809
VsubmitHIT
p5810
sVcohort_now
p5811
I88
sVbonusEarnings
p5812
F1.4000000000000001
sVHITStatus
p5813
(dp5814
VgamesPlayed
p5815
I6
sVgamesConsummated
p5816
I6
ssVcompletedExperiment
p5817
I01
sVmeteorUserId
p5818
VMqzbsNPbneyELtzkn
p5819
sVbreakdownEarnings
p5820
(dp5821
Vexperiment1
p5822
F0.8
sVexperiment2
p5823
F0.6000000000000001
sVhit
p5824
F0.1
sVsurvey
p5825
I0
sVquiz
p5826
I0
ssV_id
p5827
VRXx4NNFFmgJueCSxr
p5828
sVmtAssignmentId
p5829
V3YHH42UU5BFSMADCOVDNNGFT10W0L1
p5830
sa(dp5831
VreadyToProceed
p5832
I00
sVtsGroupId
p5833
Vundefined
p5834
sVisExperienced
p5835
I0
sVsec_rnd_stg_now
p5836
I0
sVsec_rnd_now
p5837
I0
sVquiz
p5838
(dp5839
Vfailed
p5840
I00
sVpassed
p5841
I01
sVtriesLeft
p5842
I3
ssVsec_type_now
p5843
VsubmitHIT
p5844
sVblock_now
p5845
I1
sVtsBatchId
p5846
VdpmhLMSeHeJP8wGdo
p5847
sVcohortIds
p5848
(lp5849
I83
aI81
asVtsAsstId
p5850
VhM2frwbTdcZzmt6Tx
p5851
sVtreatments
p5852
(lp5853
Vnofeedback
p5854
aVfeedback
p5855
asVmtWorkerId
p5856
VA37WXDYYT7RCZ0
p5857
sVmtHitId
p5858
V3KTZHH2ONIFRNX26T9MFRP4J9Q0M8A
p5859
sVtreatment_now
p5860
Vfeedback
p5861
sVsec_now
p5862
VsubmitHIT
p5863
sVcohort_now
p5864
I81
sVbonusEarnings
p5865
F1.6
sVHITStatus
p5866
(dp5867
VgamesPlayed
p5868
I6
sVgamesConsummated
p5869
I6
ssVcompletedExperiment
p5870
I01
sVmeteorUserId
p5871
V3ssf4eRR4vc6vTQoo
p5872
sVbreakdownEarnings
p5873
(dp5874
Vexperiment1
p5875
F0.4
sVexperiment2
p5876
F0.8
sVhit
p5877
F0.1
sVsurvey
p5878
F0.15
sVquiz
p5879
F0.25
ssV_id
p5880
V8BYhxbWNkMLMzEXHD
p5881
sVmtAssignmentId
p5882
V3U088ZLJVKT8X4PBS9KPWRW9Z7XW0N
p5883
sa(dp5884
VreadyToProceed
p5885
I00
sVtsGroupId
p5886
Vundefined
p5887
sVisExperienced
p5888
I2
sVsec_rnd_stg_now
p5889
I0
sVsec_rnd_now
p5890
I0
sVquiz
p5891
(dp5892
Vfailed
p5893
I00
sVpassed
p5894
I00
sVtriesLeft
p5895
I3
ssVsec_type_now
p5896
VsubmitHIT
p5897
sVblock_now
p5898
I1
sVtsBatchId
p5899
VdpmhLMSeHeJP8wGdo
p5900
sVcohortIds
p5901
(lp5902
I80
aI84
asVtsAsstId
p5903
VttBq9MskbHkBtJhqw
p5904
sVtreatments
p5905
(lp5906
Vfeedback
p5907
aVnofeedback
p5908
asVmtWorkerId
p5909
VAB66CTVQ90RCV
p5910
sVmtHitId
p5911
V35O6H0UNLSGIZ7DJSE2KZD2B37F5J0
p5912
sVtreatment_now
p5913
Vnofeedback
p5914
sVsec_now
p5915
VsubmitHIT
p5916
sVcohort_now
p5917
I84
sVbonusEarnings
p5918
F1.5000000000000002
sVHITStatus
p5919
(dp5920
VgamesPlayed
p5921
I6
sVgamesConsummated
p5922
I6
ssVcompletedExperiment
p5923
I01
sVmeteorUserId
p5924
V3iCmJz8m82nCyz7aS
p5925
sVbreakdownEarnings
p5926
(dp5927
Vexperiment1
p5928
F0.9000000000000001
sVexperiment2
p5929
F0.6000000000000001
sVhit
p5930
F0.1
sVsurvey
p5931
I0
sVquiz
p5932
I0
ssV_id
p5933
VDRpjW6NPh4zQd34yx
p5934
sVmtAssignmentId
p5935
V3OCHAWUVGOKPZU1567QTHUPPM7BKXC
p5936
sa(dp5937
VreadyToProceed
p5938
I00
sVtsGroupId
p5939
Vundefined
p5940
sVisExperienced
p5941
I3
sVsec_rnd_stg_now
p5942
I0
sVsec_rnd_now
p5943
I0
sVquiz
p5944
(dp5945
Vfailed
p5946
I00
sVpassed
p5947
I00
sVtriesLeft
p5948
I3
ssVsec_type_now
p5949
VsubmitHIT
p5950
sVblock_now
p5951
I1
sVtsBatchId
p5952
VdpmhLMSeHeJP8wGdo
p5953
sVcohortIds
p5954
(lp5955
I83
aI85
asVtsAsstId
p5956
VvPhRJt3RWWiQAxfca
p5957
sVtreatments
p5958
(lp5959
Vfeedback
p5960
aVnofeedback
p5961
asVmtWorkerId
p5962
VA1U8RH67FLZW87
p5963
sVmtHitId
p5964
V31ODACBENUF0RWF7Z0Z1PPOPVNWSQZ
p5965
sVtreatment_now
p5966
Vnofeedback
p5967
sVsec_now
p5968
VsubmitHIT
p5969
sVcohort_now
p5970
I85
sVbonusEarnings
p5971
F1.6
sVHITStatus
p5972
(dp5973
VgamesPlayed
p5974
I6
sVgamesConsummated
p5975
I6
ssVcompletedExperiment
p5976
I01
sVmeteorUserId
p5977
VXwqKaBoZHTEiDWfFg
p5978
sVbreakdownEarnings
p5979
(dp5980
Vexperiment1
p5981
F0.7000000000000001
sVexperiment2
p5982
F0.9000000000000001
sVhit
p5983
F0.1
sVsurvey
p5984
I0
sVquiz
p5985
I0
ssV_id
p5986
VBaiNFSYpWLEgG4zPZ
p5987
sVmtAssignmentId
p5988
V3E47SOBEYQWAQ10MF89UQ1P2TLZICY
p5989
sa(dp5990
VreadyToProceed
p5991
I00
sVtsGroupId
p5992
Vundefined
p5993
sVisExperienced
p5994
I1
sVsec_rnd_stg_now
p5995
I0
sVsec_rnd_now
p5996
I0
sVquiz
p5997
(dp5998
Vfailed
p5999
I00
sVpassed
p6000
I00
sVtriesLeft
p6001
I3
ssVsec_type_now
p6002
VsubmitHIT
p6003
sVblock_now
p6004
I1
sVtsBatchId
p6005
VdpmhLMSeHeJP8wGdo
p6006
sVcohortIds
p6007
(lp6008
I89
aI91
asVtsAsstId
p6009
VkcomigRh4KB9qPqFo
p6010
sVtreatments
p6011
(lp6012
Vfeedback
p6013
aVnofeedback
p6014
asVmtWorkerId
p6015
VA37WXDYYT7RCZ0
p6016
sVmtHitId
p6017
V3BPP3MA3TCKOQGUC6070JMLGKQALEC
p6018
sVtreatment_now
p6019
Vnofeedback
p6020
sVsec_now
p6021
VsubmitHIT
p6022
sVcohort_now
p6023
I91
sVbonusEarnings
p6024
F1.4000000000000001
sVHITStatus
p6025
(dp6026
VgamesPlayed
p6027
I6
sVgamesConsummated
p6028
I6
ssVcompletedExperiment
p6029
I01
sVmeteorUserId
p6030
V3ssf4eRR4vc6vTQoo
p6031
sVbreakdownEarnings
p6032
(dp6033
Vexperiment1
p6034
F0.5
sVexperiment2
p6035
F0.9000000000000001
sVhit
p6036
F0.1
sVsurvey
p6037
I0
sVquiz
p6038
I0
ssV_id
p6039
VnFDJHcLQGJvsJ4rMQ
p6040
sVmtAssignmentId
p6041
V3B837J3LDOW3QHS12HT3JYUB2K4SR6
p6042
sa(dp6043
VreadyToProceed
p6044
I00
sVtsGroupId
p6045
Vundefined
p6046
sVisExperienced
p6047
I3
sVsec_rnd_stg_now
p6048
I0
sVsec_rnd_now
p6049
I0
sVquiz
p6050
(dp6051
Vfailed
p6052
I00
sVpassed
p6053
I00
sVtriesLeft
p6054
I3
ssVsec_type_now
p6055
VsubmitHIT
p6056
sVblock_now
p6057
I1
sVtsBatchId
p6058
VdpmhLMSeHeJP8wGdo
p6059
sVcohortIds
p6060
(lp6061
I88
aI91
asVtsAsstId
p6062
VGFTC53sbdyjEsTkCj
p6063
sVtreatments
p6064
(lp6065
Vfeedback
p6066
aVfeedback
p6067
asVmtWorkerId
p6068
VAB66CTVQ90RCV
p6069
sVmtHitId
p6070
V3BPP3MA3TCKOQGUC6070JMLGKQALEC
p6071
sVtreatment_now
p6072
Vfeedback
p6073
sVsec_now
p6074
VsubmitHIT
p6075
sVcohort_now
p6076
I91
sVbonusEarnings
p6077
F1.8000000000000003
sVHITStatus
p6078
(dp6079
VgamesPlayed
p6080
I6
sVgamesConsummated
p6081
I6
ssVcompletedExperiment
p6082
I01
sVmeteorUserId
p6083
V3iCmJz8m82nCyz7aS
p6084
sVbreakdownEarnings
p6085
(dp6086
Vexperiment1
p6087
F0.9000000000000001
sVexperiment2
p6088
F0.9000000000000001
sVhit
p6089
F0.1
sVsurvey
p6090
I0
sVquiz
p6091
I0
ssV_id
p6092
V7SRmZnZmwbAZPkfja
p6093
sVmtAssignmentId
p6094
V3VA45EW49NN0ZK1RX6XFT22X1X7O19
p6095
sa(dp6096
VreadyToProceed
p6097
I00
sVtsGroupId
p6098
Vundefined
p6099
sVisExperienced
p6100
I4
sVsec_rnd_stg_now
p6101
I0
sVsec_rnd_now
p6102
I0
sVquiz
p6103
(dp6104
Vfailed
p6105
I00
sVpassed
p6106
I00
sVtriesLeft
p6107
I3
ssVsec_type_now
p6108
VsubmitHIT
p6109
sVblock_now
p6110
I1
sVtsBatchId
p6111
VdpmhLMSeHeJP8wGdo
p6112
sVcohortIds
p6113
(lp6114
I95
aI93
asVtsAsstId
p6115
VRCGyrsaRHT2JTmtB7
p6116
sVtreatments
p6117
(lp6118
Vnofeedback
p6119
aVfeedback
p6120
asVmtWorkerId
p6121
VAB66CTVQ90RCV
p6122
sVmtHitId
p6123
V3HXCEECSQMT61AS7L2A3Y4OUHC8YZA
p6124
sVtreatment_now
p6125
Vfeedback
p6126
sVsec_now
p6127
VsubmitHIT
p6128
sVcohort_now
p6129
I93
sVbonusEarnings
p6130
F0.9000000000000001
sVHITStatus
p6131
(dp6132
VgamesPlayed
p6133
I6
sVgamesConsummated
p6134
I6
ssVcompletedExperiment
p6135
I01
sVmeteorUserId
p6136
V3iCmJz8m82nCyz7aS
p6137
sVbreakdownEarnings
p6138
(dp6139
Vexperiment1
p6140
F0.7000000000000001
sVexperiment2
p6141
F0.2
sVhit
p6142
F0.1
sVsurvey
p6143
I0
sVquiz
p6144
I0
ssV_id
p6145
VMurKSrWsQoxs23Xux
p6146
sVmtAssignmentId
p6147
V3TUI152ZZBN3KWE7CJPJI7XXGYQQ1K
p6148
sa(dp6149
VreadyToProceed
p6150
I00
sVtsGroupId
p6151
Vundefined
p6152
sVisExperienced
p6153
I0
sVsec_rnd_stg_now
p6154
I0
sVsec_rnd_now
p6155
I0
sVquiz
p6156
(dp6157
Vfailed
p6158
I00
sVpassed
p6159
I01
sVtriesLeft
p6160
I3
ssVsec_type_now
p6161
VsubmitHIT
p6162
sVblock_now
p6163
I1
sVtsBatchId
p6164
VdpmhLMSeHeJP8wGdo
p6165
sVcohortIds
p6166
(lp6167
I69
aI70
asVtsAsstId
p6168
VmundjQbrzfGJYD53R
p6169
sVtreatments
p6170
(lp6171
Vnofeedback
p6172
aVfeedback
p6173
asVmtWorkerId
p6174
VA2K56J9POYUFCA
p6175
sVmtHitId
p6176
V3JMNNNO3B14C6UUVHUJ1QWT7LROW28
p6177
sVtreatment_now
p6178
Vfeedback
p6179
sVsec_now
p6180
VsubmitHIT
p6181
sVcohort_now
p6182
I70
sVbonusEarnings
p6183
F1.9000000000000001
sVHITStatus
p6184
(dp6185
VgamesPlayed
p6186
I6
sVgamesConsummated
p6187
I6
ssVcompletedExperiment
p6188
I01
sVmeteorUserId
p6189
V4Nuz5oe9KkS3zyZ74
p6190
sVbreakdownEarnings
p6191
(dp6192
Vexperiment1
p6193
F0.6000000000000001
sVexperiment2
p6194
F0.9000000000000001
sVhit
p6195
F0.1
sVsurvey
p6196
F0.15
sVquiz
p6197
F0.25
ssV_id
p6198
VANxgXrA6BrhedxQqn
p6199
sVmtAssignmentId
p6200
V3HWRJOOET52EHDNWGB93KRVSNVASEP
p6201
sa(dp6202
VreadyToProceed
p6203
I00
sVtsGroupId
p6204
Vundefined
p6205
sVisExperienced
p6206
I0
sVsec_rnd_stg_now
p6207
I0
sVsec_rnd_now
p6208
I0
sVquiz
p6209
(dp6210
Vfailed
p6211
I00
sVpassed
p6212
I01
sVtriesLeft
p6213
I3
ssVsec_type_now
p6214
VsubmitHIT
p6215
sVblock_now
p6216
I1
sVtsBatchId
p6217
VdpmhLMSeHeJP8wGdo
p6218
sVcohortIds
p6219
(lp6220
sVtsAsstId
p6221
Vm5E5XewMRXMyQgFn5
p6222
sVtreatments
p6223
(lp6224
Vnofeedback
p6225
aVfeedback
p6226
asVmtWorkerId
p6227
VAKSJ3C5O3V9RB
p6228
sVmtHitId
p6229
V3PKVGQTFIHKXZJ6GBLGQC1MV5GXRYL
p6230
sVtreatment_now
p6231
Vfeedback
p6232
sVsec_now
p6233
VsubmitHIT
p6234
sVcohort_now
p6235
I24
sVbonusEarnings
p6236
F0.9500000000000001
sVcompletedExperiment
p6237
I01
sVmeteorUserId
p6238
Vkb4uSXkyYbsvTw4pj
p6239
sVbreakdownEarnings
p6240
(dp6241
Vexperiment1
p6242
I0
sVexperiment2
p6243
F0.6000000000000001
sVhit
p6244
F0.1
sVsurvey
p6245
F0.1
sVquiz
p6246
F0.25
ssV_id
p6247
VrkiciyFMEwy9TgWoC
p6248
sVmtAssignmentId
p6249
V3LYA37P8IQNIMRY41BYBSXYX3YYBKT
p6250
sa(dp6251
VreadyToProceed
p6252
I00
sVtsGroupId
p6253
Vundefined
p6254
sVisExperienced
p6255
I0
sVsec_rnd_stg_now
p6256
I0
sVsec_rnd_now
p6257
I0
sVquiz
p6258
(dp6259
Vfailed
p6260
I00
sVpassed
p6261
I01
sVtriesLeft
p6262
I2
ssVsec_type_now
p6263
VsubmitHIT
p6264
sVblock_now
p6265
I1
sVtsBatchId
p6266
VdpmhLMSeHeJP8wGdo
p6267
sVcohortIds
p6268
(lp6269
I90
aI94
asVtsAsstId
p6270
VLf5BhZjRgYtmyg2S4
p6271
sVtreatments
p6272
(lp6273
Vfeedback
p6274
aVnofeedback
p6275
asVmtWorkerId
p6276
VAMZV70TID53WY
p6277
sVmtHitId
p6278
V35O6H0UNLSGIZ7DJSE2KZD2B37F5J0
p6279
sVtreatment_now
p6280
Vnofeedback
p6281
sVsec_now
p6282
VsubmitHIT
p6283
sVcohort_now
p6284
I94
sVbonusEarnings
p6285
F2.2
sVHITStatus
p6286
(dp6287
VgamesPlayed
p6288
I6
sVgamesConsummated
p6289
I6
ssVcompletedExperiment
p6290
I01
sVmeteorUserId
p6291
VkGwgjkfvpkJHZfa3m
p6292
sVbreakdownEarnings
p6293
(dp6294
Vexperiment1
p6295
F0.9000000000000001
sVexperiment2
p6296
F0.9000000000000001
sVhit
p6297
F0.1
sVsurvey
p6298
F0.15
sVquiz
p6299
F0.25
ssV_id
p6300
V5rr69SFBe3XA9ZrYQ
p6301
sVmtAssignmentId
p6302
V3VAR3R6G1P1IAKLCWR6U8CP5F3CO8S
p6303
sa(dp6304
VreadyToProceed
p6305
I00
sVtsGroupId
p6306
Vundefined
p6307
sVisExperienced
p6308
I0
sVsec_rnd_stg_now
p6309
I0
sVsec_rnd_now
p6310
I0
sVquiz
p6311
(dp6312
Vfailed
p6313
I00
sVpassed
p6314
I01
sVtriesLeft
p6315
I3
ssVsec_type_now
p6316
VsubmitHIT
p6317
sVblock_now
p6318
I1
sVtsBatchId
p6319
VdpmhLMSeHeJP8wGdo
p6320
sVcohortIds
p6321
(lp6322
I46
aI47
asVtsAsstId
p6323
VrqKeAp9dnav2r3pgM
p6324
sVtreatments
p6325
(lp6326
Vnofeedback
p6327
aVfeedback
p6328
asVmtWorkerId
p6329
VAGVUHOBSCP6YC
p6330
sVmtHitId
p6331
V3XQ4XW3OD9CJZDDMXP90T7QME972S3
p6332
sVtreatment_now
p6333
Vfeedback
p6334
sVsec_now
p6335
VsubmitHIT
p6336
sVcohort_now
p6337
I47
sVbonusEarnings
p6338
F1.8
sVHITStatus
p6339
(dp6340
VgamesPlayed
p6341
I6
sVgamesConsummated
p6342
I6
ssVcompletedExperiment
p6343
I01
sVmeteorUserId
p6344
VuPjrKvFv3fmSN7T9g
p6345
sVbreakdownEarnings
p6346
(dp6347
Vexperiment1
p6348
F0.6000000000000001
sVexperiment2
p6349
F0.8
sVhit
p6350
F0.1
sVsurvey
p6351
F0.15
sVquiz
p6352
F0.25
ssV_id
p6353
V3tLnKHpcXJkQ7fcpp
p6354
sVmtAssignmentId
p6355
V3OVR4I9USPJKCVBQZ18LG540SINQ4K
p6356
sa(dp6357
VreadyToProceed
p6358
I00
sVtsGroupId
p6359
Vundefined
p6360
sVisExperienced
p6361
I1
sVsec_rnd_stg_now
p6362
I0
sVsec_rnd_now
p6363
I0
sVquiz
p6364
(dp6365
Vfailed
p6366
I00
sVpassed
p6367
I00
sVtriesLeft
p6368
I3
ssVsec_type_now
p6369
VsubmitHIT
p6370
sVblock_now
p6371
I1
sVtsBatchId
p6372
VdpmhLMSeHeJP8wGdo
p6373
sVcohortIds
p6374
(lp6375
I102
aI107
asVtsAsstId
p6376
VQxvaJ9Qp5dD2nsaX4
p6377
sVtreatments
p6378
(lp6379
Vfeedback
p6380
aVnofeedback
p6381
asVmtWorkerId
p6382
VAKSJ3C5O3V9RB
p6383
sVmtHitId
p6384
V31ODACBENUF0RWF7Z0Z1PPOPVNWSQZ
p6385
sVtreatment_now
p6386
Vnofeedback
p6387
sVsec_now
p6388
VsubmitHIT
p6389
sVcohort_now
p6390
I107
sVbonusEarnings
p6391
F1.3
sVHITStatus
p6392
(dp6393
VgamesPlayed
p6394
I6
sVgamesConsummated
p6395
I6
ssVcompletedExperiment
p6396
I01
sVmeteorUserId
p6397
Vkb4uSXkyYbsvTw4pj
p6398
sVbreakdownEarnings
p6399
(dp6400
Vexperiment1
p6401
F0.8
sVexperiment2
p6402
F0.5
sVhit
p6403
F0.1
sVsurvey
p6404
I0
sVquiz
p6405
I0
ssV_id
p6406
V48qNdbu7CCLe8ZbZ3
p6407
sVmtAssignmentId
p6408
V3HSYG7LRBJYJFU2Y7OB4R0HNQYXKKO
p6409
sa.